MPASM 5.87                          MAIN.ASM   6-7-2020  18:12:51         PAGE  1


LOC  OBJECT CODE     LINE SOURCE TEXT
  VALUE

                      00001                                                                             
                      00002 ;    Filename: CALCULADORA                                                                 *
                      00003 ;    Date:05/06/2020                                                                     *
                      00004 ;    File Version: 1.2                                                            *
                      00005 ;    Author:Miguel Falcao,Lucas Souza                                                                   
                            *
                      00006 ;    Company:                                                                  *
                      00007 ;    Description:                                                              *
                      00008 ;                                                                              *
                      00009     #include "p16f877a.inc"
                      00001         LIST
                      00002 
                      00003 ;==========================================================================
                      00004 ; Build date : Jan 06 2020
                      00005 ;  MPASM PIC16F877A processor include
                      00006 ; 
                      00007 ;  (c) Copyright 1999-2020 Microchip Technology, All rights reserved
                      00008 ;==========================================================================
                      00009 
                      00567         LIST
                      00010     #INCLUDE"CALCULATOR_DISPLAY_HEADER.inc"
                      00001 #IFNDEF CALCULATOR_DISPLAY_HEADER
                      00002 #DEFINE CALCULATOR_DISPLAY_HEADER
                      00003 #INCLUDE"GENERAL_USE_HEADER.inc"    
                      00001 #IFNDEF GENERAL_USE_HEADER
                      00002 #DEFINE GENERAL_USE_HEADER
                      00003     
                      00004 ;DECLARACAO DE VARIAVEIS GLOBAIS    
                      00005 POG_VARIAVEIS MACRO       
                      00006 DELAY_FT1   RES  1
                      00007 DELAY_FT2   RES  1  
                      00008 DELAY_FT3   RES  1  
                      00009 RES_SUB     RES  1
                      00010 RES_SOM     RES  1     
                      00011 AUX_INPUTD  RES  1
                      00012 AUX_INPUTU  RES  1     
                      00013  ENDM
                      00014     
                      00015 ;CONFIGURACOES DOS DELAYS NAO INTERRUPCOES 
                      00016 ENABLE_DELAYS MACRO
                      00017     ;DELAY DE 1 MILISEGUNDO    
                      00018 DELAY_1MS:
                      00019     MOVLW D'165'       
                      00020     MOVWF DELAY_FT1
                      00021 DELAY_LOOP:
                      00022     DECFSZ DELAY_FT1, 1    
                      00023     GOTO  DELAY_LOOP 
                      00024     RETURN
                      00025     
                      00026 DELAY_255:
                      00027     MOVLW D'165' 
                      00028     MOVWF DELAY_FT1
                      00029     MOVLW D'255' 
MPASM 5.87                          MAIN.ASM   6-7-2020  18:12:51         PAGE  2


LOC  OBJECT CODE     LINE SOURCE TEXT
  VALUE

                      00030     MOVWF DELAY_FT2
                      00031 DELAY_LP:
                      00032     DECFSZ DELAY_FT1, 1 
                      00033     GOTO DELAY_LP 
                      00034     DECFSZ DELAY_FT2, 1
                      00035     GOTO DELAY_LP
                      00036     RETURN     
                      00037  
                      00038     ENDM
                      00039     
                      00040 
                      00041 ;MACROS DOS BANCOS
                      00042 BANK0 MACRO 
                      00043  BCF STATUS, RP1;RP1:RP0
                      00044  BCF STATUS, RP0
                      00045  ENDM
                      00046 
                      00047 BANK1 MACRO
                      00048  BCF STATUS, RP1;RP1:RP0
                      00049  BSF STATUS, RP0
                      00050  ENDM
                      00051 
                      00052 BANK2 MACRO
                      00053  BSF STATUS, RP1;RP1:RP0
                      00054  BCF STATUS, RP0
                      00055  ENDM
                      00056 
                      00057 BANK3 MACRO
                      00058  BSF STATUS, RP1;RP1:RP0
                      00059  BSF STATUS, RP0
                      00060  ENDM   
                      00061      
                      00062   
                      00063 ;CONJUNTO  DE INSTRUOES QUE FORMA O IF 
                      00064 CMP MACRO FILE, LITERAL, CASE_TRUE, CASE_FALSE 
                      00065     MOVF FILE,0
                      00066     SUBLW LITERAL
                      00067     MOVWF RES_SUB
                      00068     DECF RES_SUB
                      00069     INCFSZ RES_SUB
                      00070     GOTO CASE_FALSE
                      00071     GOTO CASE_TRUE
                      00072     ENDM 
                      00073             
                      00074     
                      00075     
                      00076     
                      00077     
                      00078     
                      00079     
                      00080 #ENDIF
                      00081 
                      00082 
MPASM 5.87                          MAIN.ASM   6-7-2020  18:12:51         PAGE  3


LOC  OBJECT CODE     LINE SOURCE TEXT
  VALUE

                      00004     
                      00005 ;VALORES PARA O DISPLAY 
  00000008            00006 DISPLAY_3        EQU  B'00001000' ;DISPLAY 2
  00000010            00007 DISPLAY_4        EQU  B'00010000' ;DISPLAY 3     
  00000004            00008 DISPLAY_2        EQU  B'00000100' ;DISPLAY 1
  00000020            00009 DISPLAY_1        EQU  B'00100000' ;DISPLAY 4
                      00010  
                      00011 ;VALORES NUMERICOS DO DISPLAY
  0000003F            00012 ZERO     EQU  B'00111111'                
  00000006            00013 UM       EQU  B'00000110'
  0000005B            00014 DOIS     EQU  B'01011011'
  0000004F            00015 TRES     EQU  B'01001111'
  00000066            00016 QUATRO   EQU  B'01100110'
  0000006D            00017 CINCO    EQU  B'01101101'
  0000007D            00018 SEIS     EQU  B'01111101'
  00000027            00019 SETE     EQU  B'00100111'
  0000007F            00020 OITO     EQU  B'01111111'
  00000067            00021 NOVE     EQU  B'01100111'
                      00022          
                      00023                  
                      00024 ENABLE_DISPLAY MACRO
                      00025 ;CONFIGURA O DISPLAY PRA SAIDA DE DADOS 
                      00026 CONFIG_DISPLAY:
                      00027     BANK1
                      00028     MOVLW   B'00001000'
                      00029     MOVWF   TRISB
                      00030     CLRF    TRISD
                      00031     CLRF    TRISA
                      00032     BANK0
                      00033     CLRF PORTB 
                      00034     CLRF PORTD
                      00035     RETURN 
                      00036     
                      00037 ;ATIVA O DISPLAY 1    
                      00038 ATIVA_DISPLAY_1:
                      00039     MOVLW DISPLAY_1
                      00040     MOVWF PORTA
                      00041     RETURN
                      00042 ;ATIVA O DISPLAY 2    
                      00043 ATIVA_DISPLAY_2:
                      00044     MOVLW DISPLAY_2
                      00045     MOVWF PORTA
                      00046     RETURN    
                      00047 ;ATIVA O DISPLAY 3    
                      00048 ATIVA_DISPLAY_3:
                      00049     MOVLW DISPLAY_3
                      00050     MOVWF PORTA
                      00051     RETURN
                      00052 ;ATIVA O DISPLAY 4    
                      00053 ATIVA_DISPLAY_4:
                      00054     MOVLW DISPLAY_4
                      00055     MOVWF PORTA
                      00056     RETURN   
MPASM 5.87                          MAIN.ASM   6-7-2020  18:12:51         PAGE  4


LOC  OBJECT CODE     LINE SOURCE TEXT
  VALUE

                      00057     
                      00058     ENDM
                      00059     
                      00060 USE_DISPLAY MACRO 
                      00061 ;PRINTS DO DISPLAY 
                      00062 PRINT_0:
                      00063     MOVLW ZERO ;0
                      00064     MOVWF PORTD
                      00065     ;CALL DELAY_1MS
                      00066     ;CALL DELAY_1MS
                      00067     RETURN 
                      00068 PRINT_1:
                      00069     MOVLW UM ;1
                      00070     MOVWF PORTD
                      00071     ;CALL DELAY_1MS
                      00072     ;CALL DELAY_1MS
                      00073     RETURN 
                      00074 PRINT_2:   
                      00075     MOVLW DOIS ;2
                      00076     MOVWF PORTD
                      00077     ;CALL DELAY_1MS
                      00078     ;CALL DELAY_1MS
                      00079     RETURN 
                      00080 PRINT_3:
                      00081     MOVLW TRES ;3
                      00082     MOVWF PORTD
                      00083     ;CALL DELAY_1MS
                      00084     ;CALL DELAY_1MS
                      00085     RETURN 
                      00086 PRINT_4:
                      00087     MOVLW QUATRO ;4
                      00088     MOVWF PORTD
                      00089     ;CALL DELAY_1MS
                      00090     ;CALL DELAY_1MS
                      00091     RETURN 
                      00092 PRINT_5:
                      00093     MOVLW CINCO ;5
                      00094     MOVWF PORTD
                      00095     ;CALL DELAY_1MS
                      00096     ;;CALL DELAY_1MS
                      00097     RETURN 
                      00098 PRINT_6:
                      00099     MOVLW SEIS ;6
                      00100     MOVWF PORTD
                      00101     ;CALL DELAY_1MS
                      00102     ;CALL DELAY_1MS
                      00103     RETURN 
                      00104 PRINT_7:
                      00105     MOVLW SETE ;7
                      00106     MOVWF PORTD
                      00107     ;CALL DELAY_1MS
                      00108     ;CALL DELAY_1MS
                      00109     RETURN 
MPASM 5.87                          MAIN.ASM   6-7-2020  18:12:51         PAGE  5


LOC  OBJECT CODE     LINE SOURCE TEXT
  VALUE

                      00110 PRINT_8:
                      00111     MOVLW OITO ;8
                      00112     MOVWF PORTD
                      00113     ;CALL DELAY_1MS
                      00114     ;CALL DELAY_1MS
                      00115     RETURN 
                      00116 PRINT_9:
                      00117     MOVLW NOVE ;9
                      00118     MOVWF PORTD
                      00119     ;CALL DELAY_1MS
                      00120     ;CALL DELAY_1MS
                      00121     RETURN
                      00122     
                      00123     ENDM 
                      00124     
                      00125 ;MOSTRA O VALOR     
                      00126 SHOW_ALL_DISPLAYS MACRO MILHAR,CENTENA,DEZENA,UNIDADE
                      00127  
                      00128 SHOW_NUMBERS:
                      00129     ;MOSTRAR O VALOR DO MILHAR
                      00130     CALL ATIVA_DISPLAY_1
                      00131     ;COMPARANDO O MILHAR COM O NUMERO PARA PRINTAR NO DISPLAY
                      00132     CMP MILHAR, D'9', TRUE_MILHAR_9, FALSE_MILHAR_8
                      00133 FALSE_MILHAR_8:
                      00134     CMP MILHAR, D'8', TRUE_MILHAR_8, FALSE_MILHAR_7
                      00135 FALSE_MILHAR_7:
                      00136     CMP MILHAR, D'7', TRUE_MILHAR_7, FALSE_MILHAR_6
                      00137 FALSE_MILHAR_6:
                      00138     CMP MILHAR, D'6', TRUE_MILHAR_6, FALSE_MILHAR_5
                      00139 FALSE_MILHAR_5:
                      00140     CMP MILHAR, D'5', TRUE_MILHAR_5, FALSE_MILHAR_4
                      00141 FALSE_MILHAR_4:
                      00142     CMP MILHAR, D'4', TRUE_MILHAR_4, FALSE_MILHAR_3
                      00143 FALSE_MILHAR_3:
                      00144     CMP MILHAR, D'3', TRUE_MILHAR_3, FALSE_MILHAR_2
                      00145 FALSE_MILHAR_2:
                      00146     CMP MILHAR, D'2', TRUE_MILHAR_2, FALSE_MILHAR_1
                      00147 FALSE_MILHAR_1:
                      00148     CMP MILHAR, D'1', TRUE_MILHAR_1, FALSE_MILHAR_0
                      00149 FALSE_MILHAR_0:
                      00150     CMP MILHAR, D'0', TRUE_MILHAR_0, SHOW_CENTENA
                      00151     ;PRINTANDO OS VALORES DO MILHAR
                      00152 TRUE_MILHAR_9:
                      00153     CALL PRINT_9
                      00154     GOTO SHOW_CENTENA
                      00155 TRUE_MILHAR_8:
                      00156     CALL PRINT_8
                      00157     GOTO SHOW_CENTENA
                      00158 TRUE_MILHAR_7:
                      00159     CALL PRINT_7
                      00160     GOTO SHOW_CENTENA
                      00161 TRUE_MILHAR_6:
                      00162     CALL PRINT_6
MPASM 5.87                          MAIN.ASM   6-7-2020  18:12:51         PAGE  6


LOC  OBJECT CODE     LINE SOURCE TEXT
  VALUE

                      00163     GOTO SHOW_CENTENA
                      00164 TRUE_MILHAR_5:
                      00165     CALL PRINT_5
                      00166     GOTO SHOW_CENTENA
                      00167 TRUE_MILHAR_4:
                      00168     CALL PRINT_4
                      00169     GOTO SHOW_CENTENA
                      00170 TRUE_MILHAR_3:
                      00171     CALL PRINT_3
                      00172     GOTO SHOW_CENTENA
                      00173 TRUE_MILHAR_2:
                      00174     CALL PRINT_2
                      00175     GOTO SHOW_CENTENA
                      00176 TRUE_MILHAR_1:
                      00177     CALL PRINT_1
                      00178     GOTO SHOW_CENTENA
                      00179 TRUE_MILHAR_0:
                      00180     CALL PRINT_0
                      00181     GOTO SHOW_CENTENA
                      00182    
                      00183 SHOW_CENTENA:
                      00184     ;MOSTRAR O VALOR DA CENTENA
                      00185     CALL ATIVA_DISPLAY_2
                      00186     ;COMPARANDO O MILHAR COM O NUMERO PARA PRINTAR NO DISPLAY
                      00187     CMP CENTENA, D'9', TRUE_CENTENA_9, FALSE_CENTENA_8
                      00188 FALSE_CENTENA_8:
                      00189     CMP CENTENA, D'8', TRUE_CENTENA_8, FALSE_CENTENA_7
                      00190 FALSE_CENTENA_7:
                      00191     CMP CENTENA, D'7', TRUE_CENTENA_7, FALSE_CENTENA_6
                      00192 FALSE_CENTENA_6:
                      00193     CMP CENTENA, D'6', TRUE_CENTENA_6, FALSE_CENTENA_5
                      00194 FALSE_CENTENA_5:
                      00195     CMP CENTENA, D'5', TRUE_CENTENA_5, FALSE_CENTENA_4
                      00196 FALSE_CENTENA_4:
                      00197     CMP CENTENA, D'4', TRUE_CENTENA_4, FALSE_CENTENA_3
                      00198 FALSE_CENTENA_3:
                      00199     CMP CENTENA, D'3', TRUE_CENTENA_3, FALSE_CENTENA_2
                      00200 FALSE_CENTENA_2:
                      00201     CMP CENTENA, D'2', TRUE_CENTENA_2, FALSE_CENTENA_1
                      00202 FALSE_CENTENA_1:
                      00203     CMP CENTENA, D'1', TRUE_CENTENA_1, FALSE_CENTENA_0
                      00204 FALSE_CENTENA_0:
                      00205     CMP CENTENA, D'0', TRUE_CENTENA_0, SHOW_DEZENA
                      00206     ;PRINTANDO OS VALORES DO MILHAR
                      00207 TRUE_CENTENA_9:
                      00208     CALL PRINT_9
                      00209     GOTO SHOW_DEZENA
                      00210 TRUE_CENTENA_8:
                      00211     CALL PRINT_8
                      00212     GOTO SHOW_DEZENA
                      00213 TRUE_CENTENA_7:
                      00214     CALL PRINT_7
                      00215     GOTO SHOW_DEZENA
MPASM 5.87                          MAIN.ASM   6-7-2020  18:12:51         PAGE  7


LOC  OBJECT CODE     LINE SOURCE TEXT
  VALUE

                      00216 TRUE_CENTENA_6:
                      00217     CALL PRINT_6
                      00218     GOTO SHOW_DEZENA
                      00219 TRUE_CENTENA_5:
                      00220     CALL PRINT_5
                      00221     GOTO SHOW_DEZENA
                      00222 TRUE_CENTENA_4:
                      00223     CALL PRINT_4
                      00224     GOTO SHOW_DEZENA
                      00225 TRUE_CENTENA_3:
                      00226     CALL PRINT_3
                      00227     GOTO SHOW_DEZENA
                      00228 TRUE_CENTENA_2:
                      00229     CALL PRINT_2
                      00230     GOTO SHOW_DEZENA
                      00231 TRUE_CENTENA_1:
                      00232     CALL PRINT_1
                      00233     GOTO SHOW_DEZENA
                      00234 TRUE_CENTENA_0:
                      00235     CALL PRINT_0
                      00236     GOTO SHOW_DEZENA   
                      00237     
                      00238 SHOW_DEZENA:
                      00239     ;MOSTRAR O VALOR DA CENTENA
                      00240     CALL ATIVA_DISPLAY_3
                      00241     ;COMPARANDO O MILHAR COM O NUMERO PARA PRINTAR NO DISPLAY
                      00242     CMP DEZENA, D'9', TRUE_DEZENA_9, FALSE_DEZENA_8
                      00243 FALSE_DEZENA_8:
                      00244     CMP DEZENA, D'8', TRUE_DEZENA_8, FALSE_DEZENA_7
                      00245 FALSE_DEZENA_7:
                      00246     CMP DEZENA, D'7', TRUE_DEZENA_7, FALSE_DEZENA_6
                      00247 FALSE_DEZENA_6:
                      00248     CMP DEZENA, D'6', TRUE_DEZENA_6, FALSE_DEZENA_5
                      00249 FALSE_DEZENA_5:
                      00250     CMP DEZENA, D'5', TRUE_DEZENA_5, FALSE_DEZENA_4
                      00251 FALSE_DEZENA_4:
                      00252     CMP DEZENA, D'4', TRUE_DEZENA_4, FALSE_DEZENA_3
                      00253 FALSE_DEZENA_3:
                      00254     CMP DEZENA, D'3', TRUE_DEZENA_3, FALSE_DEZENA_2
                      00255 FALSE_DEZENA_2:
                      00256     CMP DEZENA, D'2', TRUE_DEZENA_2, FALSE_DEZENA_1
                      00257 FALSE_DEZENA_1:
                      00258     CMP DEZENA, D'1', TRUE_DEZENA_1, FALSE_DEZENA_0
                      00259 FALSE_DEZENA_0:
                      00260     CMP DEZENA, D'0', TRUE_DEZENA_0, SHOW_UNIDADE
                      00261     ;PRINTANDO OS VALORES DO MILHAR
                      00262 TRUE_DEZENA_9:
                      00263     CALL PRINT_9
                      00264     GOTO SHOW_UNIDADE
                      00265 TRUE_DEZENA_8:
                      00266     CALL PRINT_8
                      00267     GOTO SHOW_UNIDADE
                      00268 TRUE_DEZENA_7:
MPASM 5.87                          MAIN.ASM   6-7-2020  18:12:51         PAGE  8


LOC  OBJECT CODE     LINE SOURCE TEXT
  VALUE

                      00269     CALL PRINT_7
                      00270     GOTO SHOW_UNIDADE
                      00271 TRUE_DEZENA_6:
                      00272     CALL PRINT_6
                      00273     GOTO SHOW_UNIDADE
                      00274 TRUE_DEZENA_5:
                      00275     CALL PRINT_5
                      00276     GOTO SHOW_UNIDADE
                      00277 TRUE_DEZENA_4:
                      00278     CALL PRINT_4
                      00279     GOTO SHOW_UNIDADE
                      00280 TRUE_DEZENA_3:
                      00281     CALL PRINT_3
                      00282     GOTO SHOW_UNIDADE
                      00283 TRUE_DEZENA_2:
                      00284     CALL PRINT_2
                      00285     GOTO SHOW_UNIDADE
                      00286 TRUE_DEZENA_1:
                      00287     CALL PRINT_1
                      00288     GOTO SHOW_UNIDADE
                      00289 TRUE_DEZENA_0:
                      00290     CALL PRINT_0
                      00291     GOTO SHOW_UNIDADE
                      00292  
                      00293 SHOW_UNIDADE:
                      00294     ;MOSTRAR O VALOR DA CENTENA
                      00295     CALL ATIVA_DISPLAY_4
                      00296     ;COMPARANDO O MILHAR COM O NUMERO PARA PRINTAR NO DISPLAY
                      00297     CMP UNIDADE, D'9', TRUE_UNIDADE_9, FALSE_UNIDADE_8
                      00298 FALSE_UNIDADE_8:
                      00299     CMP UNIDADE, D'8', TRUE_UNIDADE_8, FALSE_UNIDADE_7
                      00300 FALSE_UNIDADE_7:
                      00301     CMP UNIDADE, D'7', TRUE_UNIDADE_7, FALSE_UNIDADE_6
                      00302 FALSE_UNIDADE_6:
                      00303     CMP UNIDADE, D'6', TRUE_UNIDADE_6, FALSE_UNIDADE_5
                      00304 FALSE_UNIDADE_5:
                      00305     CMP UNIDADE, D'5', TRUE_UNIDADE_5, FALSE_UNIDADE_4
                      00306 FALSE_UNIDADE_4:
                      00307     CMP UNIDADE, D'4', TRUE_UNIDADE_4, FALSE_UNIDADE_3
                      00308 FALSE_UNIDADE_3:
                      00309     CMP UNIDADE, D'3', TRUE_UNIDADE_3, FALSE_UNIDADE_2
                      00310 FALSE_UNIDADE_2:
                      00311     CMP UNIDADE, D'2', TRUE_UNIDADE_2, FALSE_UNIDADE_1
                      00312 FALSE_UNIDADE_1:
                      00313     CMP UNIDADE, D'1', TRUE_UNIDADE_1, FALSE_UNIDADE_0
                      00314 FALSE_UNIDADE_0:
                      00315     CMP UNIDADE, D'0', TRUE_UNIDADE_0, FINAL
                      00316     ;PRINTANDO OS VALORES DO MILHAR
                      00317 TRUE_UNIDADE_9:
                      00318     CALL PRINT_9
                      00319     GOTO FINAL
                      00320 TRUE_UNIDADE_8:
                      00321     CALL PRINT_8
MPASM 5.87                          MAIN.ASM   6-7-2020  18:12:51         PAGE  9


LOC  OBJECT CODE     LINE SOURCE TEXT
  VALUE

                      00322     GOTO FINAL
                      00323 TRUE_UNIDADE_7:
                      00324     CALL PRINT_7
                      00325     GOTO FINAL
                      00326 TRUE_UNIDADE_6:
                      00327     CALL PRINT_6
                      00328     GOTO FINAL
                      00329 TRUE_UNIDADE_5:
                      00330     CALL PRINT_5
                      00331     GOTO FINAL
                      00332 TRUE_UNIDADE_4:
                      00333     CALL PRINT_4
                      00334     GOTO FINAL
                      00335 TRUE_UNIDADE_3:
                      00336     CALL PRINT_3
                      00337     GOTO FINAL
                      00338 TRUE_UNIDADE_2:
                      00339     CALL PRINT_2
                      00340     GOTO FINAL
                      00341 TRUE_UNIDADE_1:
                      00342     CALL PRINT_1
                      00343     GOTO FINAL
                      00344 TRUE_UNIDADE_0:
                      00345     CALL PRINT_0
                      00346     GOTO FINAL
                      00347 FINAL:
                      00348     RETURN
                      00349     
                      00350     
                      00351   ENDM 
                      00352     
                      00353     
                      00354     
                      00355     
                      00356     
                      00357     
                      00358     
                      00359     
                      00360     
                      00361 #ENDIF
                      00362 
                      00363 
                      00011     #INCLUDE"CALCULATOR_KEYBOARD_HEADER.inc"
                      00001 #IFNDEF CALCULATOR_KEYBOARD_HEADER
                      00002 #DEFINE CALCULATOR_KEYBOARD_HEADER
                      00003 #INCLUDE"GENERAL_USE_HEADER.inc"
                      00083 #IFNDEF GENERAL_USE_HEADER
                      00084 #DEFINE GENERAL_USE_HEADER
                      00085     
                      00086 ;DECLARACAO DE VARIAVEIS GLOBAIS    
                      00087 POG_VARIAVEIS MACRO       
                      00088 DELAY_FT1   RES  1
                      00089 DELAY_FT2   RES  1  
MPASM 5.87                          MAIN.ASM   6-7-2020  18:12:51         PAGE 10


LOC  OBJECT CODE     LINE SOURCE TEXT
  VALUE

                      00090 DELAY_FT3   RES  1  
                      00091 RES_SUB     RES  1
                      00092 RES_SOM     RES  1     
                      00093 AUX_INPUTD  RES  1
                      00094 AUX_INPUTU  RES  1     
                      00095  ENDM
                      00096     
                      00097 ;CONFIGURACOES DOS DELAYS NAO INTERRUPCOES 
                      00098 ENABLE_DELAYS MACRO
                      00099     ;DELAY DE 1 MILISEGUNDO    
                      00100 DELAY_1MS:
                      00101     MOVLW D'165'       
                      00102     MOVWF DELAY_FT1
                      00103 DELAY_LOOP:
                      00104     DECFSZ DELAY_FT1, 1    
                      00105     GOTO  DELAY_LOOP 
                      00106     RETURN
                      00107     
                      00108 DELAY_255:
                      00109     MOVLW D'165' 
                      00110     MOVWF DELAY_FT1
                      00111     MOVLW D'255' 
                      00112     MOVWF DELAY_FT2
                      00113 DELAY_LP:
                      00114     DECFSZ DELAY_FT1, 1 
                      00115     GOTO DELAY_LP 
                      00116     DECFSZ DELAY_FT2, 1
                      00117     GOTO DELAY_LP
                      00118     RETURN     
                      00119  
                      00120     ENDM
                      00121     
                      00122 
                      00123 ;MACROS DOS BANCOS
                      00124 BANK0 MACRO 
                      00125  BCF STATUS, RP1;RP1:RP0
                      00126  BCF STATUS, RP0
                      00127  ENDM
                      00128 
                      00129 BANK1 MACRO
                      00130  BCF STATUS, RP1;RP1:RP0
                      00131  BSF STATUS, RP0
                      00132  ENDM
                      00133 
                      00134 BANK2 MACRO
                      00135  BSF STATUS, RP1;RP1:RP0
                      00136  BCF STATUS, RP0
                      00137  ENDM
                      00138 
                      00139 BANK3 MACRO
                      00140  BSF STATUS, RP1;RP1:RP0
                      00141  BSF STATUS, RP0
                      00142  ENDM   
MPASM 5.87                          MAIN.ASM   6-7-2020  18:12:51         PAGE 11


LOC  OBJECT CODE     LINE SOURCE TEXT
  VALUE

                      00143      
                      00144   
                      00145 ;CONJUNTO  DE INSTRUOES QUE FORMA O IF 
                      00146 CMP MACRO FILE, LITERAL, CASE_TRUE, CASE_FALSE 
                      00147     MOVF FILE,0
                      00148     SUBLW LITERAL
                      00149     MOVWF RES_SUB
                      00150     DECF RES_SUB
                      00151     INCFSZ RES_SUB
                      00152     GOTO CASE_FALSE
                      00153     GOTO CASE_TRUE
                      00154     ENDM 
                      00155             
                      00156     
                      00157     
                      00158     
                      00159     
                      00160     
                      00161     
                      00162 #ENDIF
                      00163 
                      00164 
                      00004     
                      00005     
  00000000            00006 K0      EQU     D'0' ;VALOR KEY 0
  00000001            00007 K1      EQU     D'1' ;VALOR KEY 1
  00000002            00008 K2      EQU     D'2' ;VALOR KEY 2
  00000003            00009 K3      EQU     D'3' ;VALOR KEY 3
  00000004            00010 K4      EQU     D'4' ;VALOR KEY 4
  00000005            00011 K5      EQU     D'5' ;VALOR KEY 5
  00000006            00012 K6      EQU     D'6' ;VALOR KEY 6
  00000007            00013 K7      EQU     D'7' ;VALOR KEY 7
  00000008            00014 K8      EQU     D'8' ;VALOR KEY 8
  00000009            00015 K9      EQU     D'9' ;VALOR KEY 9
                      00016     
                      00017     
                      00018     
                      00019  
                      00020 ;MACRO PARA HABILITAR A CONFIGURACAO DO TECLADO    
                      00021 ENABLE_KEYBOARD MACRO 
                      00022  ;CONFIGURACAO DO TECLADO
                      00023  CONFIG_KEYBOARD:
                      00024     BANK1
                      00025     CLRF TRISB
                      00026     MOVLW B'00001111'
                      00027     MOVWF TRISD
                      00028     BANK0
                      00029     MOVLW B'00000000'
                      00030     MOVWF PORTB
                      00031     RETURN
                      00032  ENDM
                      00033     
                      00034 ;INPUT DO TECLADO
MPASM 5.87                          MAIN.ASM   6-7-2020  18:12:51         PAGE 12


LOC  OBJECT CODE     LINE SOURCE TEXT
  VALUE

                      00035 INPUT_KEYBOARD MACRO INPUT_VAL
                      00036  INPUT_LOOP:
                      00037     MOVLW D'0'
                      00038     MOVWF INPUT_VAL
                      00039        
                      00040     BTFSS TRISD, RD1
                      00041     GOTO MOV7           ; 7
                      00042     CALL DELAY_1MS
                      00043 
                      00044     BTFSS TRISD, RD2
                      00045     GOTO MOV4           ; 4
                      00046     CALL DELAY_1MS
                      00047 
                      00048     BTFSS TRISD, RD3
                      00049     GOTO MOV1           ;1
                      00050     CALL DELAY_1MS
                      00051     BSF PORTB, RB0
                      00052     
                      00053     ;;
                      00054     BCF PORTB, RB1
                      00055     BTFSS TRISD, RD0
                      00056     GOTO MOV0           ;0
                      00057     CALL DELAY_1MS
                      00058         
                      00059     BTFSS TRISD, RD1
                      00060     GOTO MOV8           ;8
                      00061     CALL DELAY_1MS
                      00062         
                      00063     BTFSS TRISD, RD2
                      00064     GOTO MOV5           ;5
                      00065     CALL DELAY_1MS
                      00066         
                      00067     BTFSS TRISD, RD3
                      00068     GOTO MOV2           ;2
                      00069     CALL DELAY_1MS
                      00070     BSF PORTB, RB1
                      00071     
                      00072     ;;
                      00073     BCF PORTB, RB2
                      00074 
                      00075     BTFSS TRISD, RD3
                      00076     GOTO MOV3           ;3
                      00077     CALL DELAY_1MS
                      00078         
                      00079     BTFSS TRISD, RD2
                      00080     GOTO MOV6           ;6
                      00081     CALL DELAY_1MS
                      00082         
                      00083     BTFSS TRISD, RD1
                      00084     GOTO MOV9           ;9
                      00085     CALL DELAY_1MS
                      00086     BSF PORTB, RB2
                      00087     ;;
MPASM 5.87                          MAIN.ASM   6-7-2020  18:12:51         PAGE 13


LOC  OBJECT CODE     LINE SOURCE TEXT
  VALUE

                      00088     
                      00089     GOTO INPUT_LOOP
                      00090  
                      00091 MOV0:
                      00092     MOVLW K0
                      00093     MOVWF INPUT_VAL
                      00094     GOTO INPUT_EXIT
                      00095 MOV1:
                      00096     MOVLW K1
                      00097     MOVWF INPUT_VAL
                      00098     GOTO INPUT_EXIT
                      00099 MOV2:
                      00100     MOVLW K2
                      00101     MOVWF INPUT_VAL
                      00102     GOTO INPUT_EXIT
                      00103 MOV3:
                      00104     MOVLW K3
                      00105     MOVWF INPUT_VAL
                      00106     GOTO INPUT_EXIT    
                      00107 MOV4:
                      00108     MOVLW K4
                      00109     MOVWF INPUT_VAL
                      00110     GOTO INPUT_EXIT
                      00111 MOV5:
                      00112     MOVLW K5
                      00113     MOVWF INPUT_VAL
                      00114     GOTO INPUT_EXIT
                      00115 MOV6:
                      00116     MOVLW K6
                      00117     MOVWF INPUT_VAL
                      00118     GOTO INPUT_EXIT    
                      00119 MOV7:
                      00120     MOVLW K7
                      00121     MOVWF INPUT_VAL
                      00122     GOTO INPUT_EXIT
                      00123 MOV8:
                      00124     MOVLW K8
                      00125     MOVWF INPUT_VAL
                      00126     GOTO INPUT_EXIT    
                      00127 MOV9:
                      00128     MOVLW K9
                      00129     MOVWF INPUT_VAL
                      00130     GOTO INPUT_EXIT 
                      00131     
                      00132 INPUT_EXIT:
                      00133     CALL DELAY_255
                      00134     CALL DELAY_255
                      00135     RETURN
                      00136     
                      00137  ENDM   
                      00138     
                      00139     
                      00140 
MPASM 5.87                          MAIN.ASM   6-7-2020  18:12:51         PAGE 14


LOC  OBJECT CODE     LINE SOURCE TEXT
  VALUE

                      00141 #ENDIF
                      00012     #INCLUDE"CALCULATOR_OPERATION_HEADER.inc"
                      00001 #IFNDEF CALCULATOR_OPERATION_HEADER
                      00002 #DEFINE CALCULATOR_OPERATION_HEADER
                      00003 #INCLUDE"GENERAL_USE_HEADER.inc"    
                      00165 #IFNDEF GENERAL_USE_HEADER
                      00166 #DEFINE GENERAL_USE_HEADER
                      00167     
                      00168 ;DECLARACAO DE VARIAVEIS GLOBAIS    
                      00169 POG_VARIAVEIS MACRO       
                      00170 DELAY_FT1   RES  1
                      00171 DELAY_FT2   RES  1  
                      00172 DELAY_FT3   RES  1  
                      00173 RES_SUB     RES  1
                      00174 RES_SOM     RES  1     
                      00175 AUX_INPUTD  RES  1
                      00176 AUX_INPUTU  RES  1     
                      00177  ENDM
                      00178     
                      00179 ;CONFIGURACOES DOS DELAYS NAO INTERRUPCOES 
                      00180 ENABLE_DELAYS MACRO
                      00181     ;DELAY DE 1 MILISEGUNDO    
                      00182 DELAY_1MS:
                      00183     MOVLW D'165'       
                      00184     MOVWF DELAY_FT1
                      00185 DELAY_LOOP:
                      00186     DECFSZ DELAY_FT1, 1    
                      00187     GOTO  DELAY_LOOP 
                      00188     RETURN
                      00189     
                      00190 DELAY_255:
                      00191     MOVLW D'165' 
                      00192     MOVWF DELAY_FT1
                      00193     MOVLW D'255' 
                      00194     MOVWF DELAY_FT2
                      00195 DELAY_LP:
                      00196     DECFSZ DELAY_FT1, 1 
                      00197     GOTO DELAY_LP 
                      00198     DECFSZ DELAY_FT2, 1
                      00199     GOTO DELAY_LP
                      00200     RETURN     
                      00201  
                      00202     ENDM
                      00203     
                      00204 
                      00205 ;MACROS DOS BANCOS
                      00206 BANK0 MACRO 
                      00207  BCF STATUS, RP1;RP1:RP0
                      00208  BCF STATUS, RP0
                      00209  ENDM
                      00210 
                      00211 BANK1 MACRO
                      00212  BCF STATUS, RP1;RP1:RP0
MPASM 5.87                          MAIN.ASM   6-7-2020  18:12:51         PAGE 15


LOC  OBJECT CODE     LINE SOURCE TEXT
  VALUE

                      00213  BSF STATUS, RP0
                      00214  ENDM
                      00215 
                      00216 BANK2 MACRO
                      00217  BSF STATUS, RP1;RP1:RP0
                      00218  BCF STATUS, RP0
                      00219  ENDM
                      00220 
                      00221 BANK3 MACRO
                      00222  BSF STATUS, RP1;RP1:RP0
                      00223  BSF STATUS, RP0
                      00224  ENDM   
                      00225      
                      00226   
                      00227 ;CONJUNTO  DE INSTRUOES QUE FORMA O IF 
                      00228 CMP MACRO FILE, LITERAL, CASE_TRUE, CASE_FALSE 
                      00229     MOVF FILE,0
                      00230     SUBLW LITERAL
                      00231     MOVWF RES_SUB
                      00232     DECF RES_SUB
                      00233     INCFSZ RES_SUB
                      00234     GOTO CASE_FALSE
                      00235     GOTO CASE_TRUE
                      00236     ENDM 
                      00237             
                      00238     
                      00239     
                      00240     
                      00241     
                      00242     
                      00243     
                      00244 #ENDIF
                      00245 
                      00246 
                      00004 
                      00005 INICIALIZA_CASAS MACRO UNI,DEZ,CEN,MIL
                      00006     MOVLW D'0'
                      00007     MOVWF UNI
                      00008     MOVWF DEZ
                      00009     MOVWF CEN
                      00010     MOVWF MIL
                      00011  ENDM
                      00012     
                      00013     
                      00014 
                      00015 OPERATIONS MACRO INPUT_U1,INPUT_D1,INPUT_U2,INPUT_D2
                      00016 
                      00017 ;OPERADOR DE SOMA 
                      00018 OPERATOR_SOMA:  
                      00019 MOVF INPUT_U1,W;UNIDADE DO VALOR 1
                      00020 ADDWF INPUT_U2,W;UNIDADE DO VALOR 2
                      00021 MOVWF UNIDADE    
                      00022 TESTA_UNIDADE:    
MPASM 5.87                          MAIN.ASM   6-7-2020  18:12:51         PAGE 16


LOC  OBJECT CODE     LINE SOURCE TEXT
  VALUE

                      00023 CMP UNIDADE, D'10', U_CARRY_0,U_TESTA11
                      00024 U_TESTA11:
                      00025 CMP UNIDADE, D'11', U_CARRY_1,U_TESTA12
                      00026 U_TESTA12:
                      00027 CMP UNIDADE, D'12', U_CARRY_2,U_TESTA13
                      00028 U_TESTA13:
                      00029 CMP UNIDADE, D'13', U_CARRY_3,U_TESTA14
                      00030 U_TESTA14:
                      00031 CMP UNIDADE, D'14', U_CARRY_4,U_TESTA15 
                      00032 U_TESTA15:
                      00033 CMP UNIDADE, D'15', U_CARRY_5,U_TESTA16
                      00034 U_TESTA16:
                      00035 CMP UNIDADE, D'16', U_CARRY_6,U_TESTA17 
                      00036 U_TESTA17:
                      00037 CMP UNIDADE, D'17', U_CARRY_7,U_TESTA18
                      00038 U_TESTA18:
                      00039 CMP UNIDADE, D'18', U_CARRY_8, TESTA_DEZENA  
                      00040 
                      00041 U_CARRY_0:
                      00042     MOVLW D'0'
                      00043     MOVWF UNIDADE
                      00044     INCF DEZENA
                      00045     GOTO TESTA_DEZENA
                      00046 U_CARRY_1:
                      00047     MOVLW D'1'
                      00048     MOVWF UNIDADE
                      00049     INCF DEZENA
                      00050     GOTO TESTA_DEZENA
                      00051 U_CARRY_2:
                      00052     MOVLW D'2'
                      00053     MOVWF UNIDADE
                      00054     INCF DEZENA
                      00055     GOTO TESTA_DEZENA
                      00056  U_CARRY_3:
                      00057     MOVLW D'3'
                      00058     MOVWF UNIDADE
                      00059     INCF DEZENA
                      00060     GOTO TESTA_DEZENA   
                      00061 U_CARRY_4:
                      00062     MOVLW D'4'
                      00063     MOVWF UNIDADE
                      00064     INCF DEZENA
                      00065     GOTO TESTA_DEZENA    
                      00066 U_CARRY_5:
                      00067     MOVLW D'5'
                      00068     MOVWF UNIDADE
                      00069     INCF DEZENA
                      00070     GOTO TESTA_DEZENA    
                      00071 U_CARRY_6:
                      00072     MOVLW D'6'
                      00073     MOVWF UNIDADE
                      00074     INCF DEZENA
                      00075     GOTO TESTA_DEZENA    
MPASM 5.87                          MAIN.ASM   6-7-2020  18:12:51         PAGE 17


LOC  OBJECT CODE     LINE SOURCE TEXT
  VALUE

                      00076 U_CARRY_7:
                      00077     MOVLW D'7'
                      00078     MOVWF UNIDADE
                      00079     INCF DEZENA
                      00080     GOTO TESTA_DEZENA    
                      00081 U_CARRY_8:
                      00082     MOVLW D'8'
                      00083     MOVWF UNIDADE
                      00084     INCF DEZENA
                      00085     GOTO TESTA_DEZENA   
                      00086      
                      00087 TESTA_DEZENA:    
                      00088 MOVF INPUT_D1,W
                      00089 ADDWF INPUT_D2,W;DEZENA VALOR 1
                      00090 ADDWF DEZENA, W    
                      00091 MOVWF DEZENA    
                      00092 CMP DEZENA, D'10', D_CARRY_0,D_TESTA11
                      00093 D_TESTA11:
                      00094 CMP DEZENA, D'11', D_CARRY_1,D_TESTA12
                      00095 D_TESTA12:
                      00096 CMP DEZENA, D'12', D_CARRY_2,D_TESTA13
                      00097 D_TESTA13:
                      00098 CMP DEZENA, D'13', D_CARRY_3,D_TESTA14
                      00099 D_TESTA14:
                      00100 CMP DEZENA, D'14', D_CARRY_4,D_TESTA15 
                      00101 D_TESTA15:
                      00102 CMP DEZENA, D'15', D_CARRY_5,D_TESTA16
                      00103 D_TESTA16:
                      00104 CMP DEZENA, D'16', D_CARRY_6,D_TESTA17 
                      00105 D_TESTA17:
                      00106 CMP DEZENA, D'17', D_CARRY_7,D_TESTA18
                      00107 D_TESTA18:
                      00108 CMP DEZENA, D'18', D_CARRY_8, D_TESTA19
                      00109 D_TESTA19:
                      00110 CMP DEZENA, D'19', D_CARRY_9, SAIDA     
                      00111 
                      00112 D_CARRY_0:
                      00113     MOVLW D'0'
                      00114     MOVWF DEZENA
                      00115     INCF CENTENA
                      00116     GOTO SAIDA
                      00117 D_CARRY_1:
                      00118     MOVLW D'1'
                      00119     MOVWF DEZENA
                      00120     INCF CENTENA
                      00121     GOTO SAIDA
                      00122 D_CARRY_2:
                      00123     MOVLW D'2'
                      00124     MOVWF DEZENA
                      00125     INCF CENTENA
                      00126     GOTO SAIDA
                      00127 D_CARRY_3:
                      00128     MOVLW D'3'
MPASM 5.87                          MAIN.ASM   6-7-2020  18:12:51         PAGE 18


LOC  OBJECT CODE     LINE SOURCE TEXT
  VALUE

                      00129     MOVWF DEZENA
                      00130     INCF CENTENA
                      00131     GOTO SAIDA   
                      00132 D_CARRY_4:
                      00133     MOVLW D'4'
                      00134     MOVWF DEZENA
                      00135     INCF CENTENA
                      00136     GOTO SAIDA    
                      00137 D_CARRY_5:
                      00138     MOVLW D'5'
                      00139     MOVWF DEZENA
                      00140     INCF CENTENA
                      00141     GOTO SAIDA    
                      00142 D_CARRY_6:
                      00143     MOVLW D'6'
                      00144     MOVWF DEZENA
                      00145     INCF CENTENA
                      00146     GOTO SAIDA    
                      00147 D_CARRY_7:
                      00148     MOVLW D'7'
                      00149     MOVWF DEZENA
                      00150     INCF CENTENA
                      00151     GOTO SAIDA    
                      00152 D_CARRY_8:
                      00153     MOVLW D'8'
                      00154     MOVWF DEZENA
                      00155     INCF CENTENA
                      00156     GOTO SAIDA
                      00157 D_CARRY_9:
                      00158     MOVLW D'9'
                      00159     MOVWF DEZENA
                      00160     INCF CENTENA
                      00161     GOTO SAIDA    
                      00162 
                      00163 SAIDA:    
                      00164 RETURN 
                      00165  
                      00166 ;OPERACAO DE SUBTRACAO    
                      00167 OPERATOR_SUB:
                      00168    MOVF INPUT_U1 , W
                      00169    SUBLW D'0'
                      00170    BTFSC STATUS, Z
                      00171    CALL REAJUST
                      00172    MOVF INPUT_U2,W
                      00173    SUBWF INPUT_U1,W
                      00174    MOVWF UNIDADE
                      00175    MOVF INPUT_D2,W
                      00176    SUBWF INPUT_D1,W
                      00177    MOVWF DEZENA
                      00178    RETURN
                      00179 CASE_0:
                      00180    MOVF INPUT_U2,W
                      00181    MOVWF UNIDADE
MPASM 5.87                          MAIN.ASM   6-7-2020  18:12:51         PAGE 19


LOC  OBJECT CODE     LINE SOURCE TEXT
  VALUE

                      00182    MOVF INPUT_D2,W
                      00183    MOVWF DEZENA
                      00184    RETURN
                      00185 REAJUST:
                      00186    MOVF INPUT_D1 , W
                      00187    SUBLW D'0'
                      00188    BTFSC STATUS, Z
                      00189    GOTO CASE_0
                      00190    MOVF INPUT_D1 , W
                      00191    SUBLW D'1'
                      00192    MOVWF INPUT_D1
                      00193    MOVF INPUT_U1,W
                      00194    ADDLW D'10'
                      00195    MOVWF INPUT_U1
                      00196    RETURN
                      00197    
                      00198    
                      00199    
                      00200    
                      00201    
                      00202    
                      00203    
                      00204    OPERATOR_MULTI:
                      00205     ;TESTE UNIDADE COM UNIDADE
                      00206     MOVF INPUT_U1,W
                      00207     ANDWF INPUT_U2
                      00208     BTFSC STATUS,Z
                      00209     CALL CASE_U1XU2
                      00210     ;TESTE UNIDADE COM DEZENA 
                      00211     MOVF INPUT_U1,W
                      00212     ANDWF INPUT_D2
                      00213     BTFSC STATUS,Z
                      00214     CALL CASE_U1XD2
                      00215     ;TESTE DEZENA COM UNIDADE
                      00216     MOVF INPUT_D1,W
                      00217     ANDWF INPUT_U2
                      00218     BTFSC STATUS,Z
                      00219     CALL CASE_D1XU2
                      00220     ;TESTE DEZENDE COM DEZENA
                      00221     MOVF INPUT_D1,W
                      00222     ANDWF INPUT_D2
                      00223     BTFSC STATUS,Z
                      00224     CALL CASE_D1XD2
                      00225 
                      00226 CASE_U1XU2;PARA VALOR DA UNIDADE
                      00227     MOVF INPUT_U2,W
                      00228     MOVWF AUX_INPUTU
                      00229     LOOP_UNIDADE
                      00230     MOVF INPUT_U1,W
                      00231     ADDWF UNIDADE,W
                      00232     MOVWF UNIDADE
                      00233     ;TESTE UNIDADE + UNIDADE
                      00234 MTESTA_UNIDADE:    
MPASM 5.87                          MAIN.ASM   6-7-2020  18:12:51         PAGE 20


LOC  OBJECT CODE     LINE SOURCE TEXT
  VALUE

                      00235 CMP UNIDADE, D'10', MU_CARRY_0,MU_TESTA11
                      00236 MU_TESTA11:
                      00237 CMP UNIDADE, D'11', MU_CARRY_1,MU_TESTA12
                      00238 MU_TESTA12:
                      00239 CMP UNIDADE, D'12', MU_CARRY_2,MU_TESTA13
                      00240 MU_TESTA13:
                      00241 CMP UNIDADE, D'13', MU_CARRY_3,MU_TESTA14
                      00242 MU_TESTA14:
                      00243 CMP UNIDADE, D'14', MU_CARRY_4,MU_TESTA15 
                      00244 MU_TESTA15:
                      00245 CMP UNIDADE, D'15', MU_CARRY_5,MU_TESTA16
                      00246 MU_TESTA16:
                      00247 CMP UNIDADE, D'16', MU_CARRY_6,MU_TESTA17 
                      00248 MU_TESTA17:
                      00249 CMP UNIDADE, D'17', MU_CARRY_7,MU_TESTA18
                      00250 MU_TESTA18:
                      00251 CMP UNIDADE, D'18', MU_CARRY_8, FIM_TESTE_UNIDADE  
                      00252 
                      00253 MU_CARRY_0:
                      00254     MOVLW D'0'
                      00255     MOVWF UNIDADE
                      00256     INCF DEZENA
                      00257     GOTO FIM_TESTE_UNIDADE
                      00258 MU_CARRY_1:
                      00259     MOVLW D'1'
                      00260     MOVWF UNIDADE
                      00261     INCF DEZENA
                      00262     GOTO FIM_TESTE_UNIDADE
                      00263 MU_CARRY_2:
                      00264     MOVLW D'2'
                      00265     MOVWF UNIDADE
                      00266     INCF DEZENA
                      00267     GOTO FIM_TESTE_UNIDADE
                      00268 MU_CARRY_3:
                      00269     MOVLW D'3'
                      00270     MOVWF UNIDADE
                      00271     INCF DEZENA
                      00272     GOTO FIM_TESTE_UNIDADE   
                      00273 MU_CARRY_4:
                      00274     MOVLW D'4'
                      00275     MOVWF UNIDADE
                      00276     INCF DEZENA
                      00277     GOTO FIM_TESTE_UNIDADE    
                      00278 MU_CARRY_5:
                      00279     MOVLW D'5'
                      00280     MOVWF UNIDADE
                      00281     INCF DEZENA
                      00282     GOTO FIM_TESTE_UNIDADE    
                      00283 MU_CARRY_6:
                      00284     MOVLW D'6'
                      00285     MOVWF UNIDADE
                      00286     INCF DEZENA
                      00287     GOTO FIM_TESTE_UNIDADE    
MPASM 5.87                          MAIN.ASM   6-7-2020  18:12:51         PAGE 21


LOC  OBJECT CODE     LINE SOURCE TEXT
  VALUE

                      00288 MU_CARRY_7:
                      00289     MOVLW D'7'
                      00290     MOVWF UNIDADE
                      00291     INCF DEZENA
                      00292     GOTO FIM_TESTE_UNIDADE    
                      00293 MU_CARRY_8:
                      00294     MOVLW D'8'
                      00295     MOVWF UNIDADE
                      00296     INCF DEZENA
                      00297     GOTO FIM_TESTE_UNIDADE 
                      00298     
                      00299 FIM_TESTE_UNIDADE:
                      00300     DECF AUX_INPUTU
                      00301     BTFSC STATUS,Z
                      00302     GOTO LOOP_UNIDADE
                      00303     RETURN
                      00304 CASE_U1XD2
                      00305     MOVF INPUT_D2,W
                      00306     MOVWF AUX_INPUTD
                      00307     LOOP_DEZENA_P2
                      00308     MOVF INPUT_U1,W
                      00309     ADDWF DEZENA,W
                      00310     MOVWF DEZENA
                      00311     ;TESTADOR SE PASSOU DE 10 CENTENA
                      00312 MTESTA_DEZENA:    
                      00313 CMP DEZENA, D'10', MD1_CARRY_0,MD1_TESTA11
                      00314 MD1_TESTA11:
                      00315 CMP DEZENA, D'11', MD1_CARRY_1,MD1_TESTA12
                      00316 MD1_TESTA12:
                      00317 CMP DEZENA, D'12', MD1_CARRY_2,MD1_TESTA13
                      00318 MD1_TESTA13:
                      00319 CMP DEZENA, D'13', MD1_CARRY_3,MD1_TESTA14
                      00320 MD1_TESTA14:
                      00321 CMP DEZENA, D'14', MD1_CARRY_4,MD1_TESTA15 
                      00322 MD1_TESTA15:
                      00323 CMP DEZENA, D'15', MD1_CARRY_5,MD1_TESTA16
                      00324 MD1_TESTA16:
                      00325 CMP DEZENA, D'16', MD1_CARRY_6,MD1_TESTA17 
                      00326 MD1_TESTA17:
                      00327 CMP DEZENA, D'17', MD1_CARRY_7,MD1_TESTA18
                      00328 MD1_TESTA18:
                      00329 CMP DEZENA, D'18', MD1_CARRY_8, MD1_TESTA19
                      00330 MD1_TESTA19:
                      00331 CMP DEZENA, D'19', MD1_CARRY_9, FIM_TESTE_DEZENA_1
                      00332     
                      00333 MD1_CARRY_0:
                      00334     MOVLW D'0'
                      00335     MOVWF DEZENA
                      00336     INCF CENTENA
                      00337     GOTO FIM_TESTE_DEZENA_1
                      00338 MD1_CARRY_1:
                      00339     MOVLW D'1'
                      00340     MOVWF DEZENA
MPASM 5.87                          MAIN.ASM   6-7-2020  18:12:51         PAGE 22


LOC  OBJECT CODE     LINE SOURCE TEXT
  VALUE

                      00341     INCF CENTENA
                      00342     GOTO FIM_TESTE_DEZENA_1
                      00343 MD1_CARRY_2:
                      00344     MOVLW D'2'
                      00345     MOVWF DEZENA
                      00346     INCF CENTENA
                      00347     GOTO FIM_TESTE_DEZENA_1
                      00348 MD1_CARRY_3:
                      00349     MOVLW D'3'
                      00350     MOVWF DEZENA
                      00351     INCF CENTENA
                      00352     GOTO FIM_TESTE_DEZENA_1   
                      00353 MD1_CARRY_4:
                      00354     MOVLW D'4'
                      00355     MOVWF DEZENA
                      00356     INCF CENTENA
                      00357     GOTO FIM_TESTE_DEZENA_1    
                      00358 MD1_CARRY_5:
                      00359     MOVLW D'5'
                      00360     MOVWF DEZENA
                      00361     INCF CENTENA
                      00362     GOTO FIM_TESTE_DEZENA_1    
                      00363 MD1_CARRY_6:
                      00364     MOVLW D'6'
                      00365     MOVWF DEZENA
                      00366     INCF CENTENA
                      00367     GOTO FIM_TESTE_DEZENA_1    
                      00368 MD1_CARRY_7:
                      00369     MOVLW D'7'
                      00370     MOVWF DEZENA
                      00371     INCF CENTENA
                      00372     GOTO FIM_TESTE_DEZENA_1    
                      00373 MD1_CARRY_8:
                      00374     MOVLW D'8'
                      00375     MOVWF DEZENA
                      00376     INCF CENTENA
                      00377     GOTO FIM_TESTE_DEZENA_1 
                      00378 MD1_CARRY_9:
                      00379     MOVLW D'9'
                      00380     MOVWF DEZENA
                      00381     INCF CENTENA
                      00382     GOTO FIM_TESTE_DEZENA_1     
                      00383     
                      00384     
                      00385 FIM_TESTE_DEZENA_1: 
                      00386     DECF AUX_INPUTD
                      00387     BTFSC STATUS,Z
                      00388     GOTO LOOP_DEZENA_P1
                      00389     RETURN
                      00390 CASE_D1XU2 ;PARA VALOR DA DEZENA
                      00391     MOVF INPUT_U2,W
                      00392     MOVWF AUX_INPUTU
                      00393     LOOP_DEZENA_P1
MPASM 5.87                          MAIN.ASM   6-7-2020  18:12:51         PAGE 23


LOC  OBJECT CODE     LINE SOURCE TEXT
  VALUE

                      00394     MOVF INPUT_D1,W
                      00395     ADDWF DEZENA,W
                      00396     MOVWF DEZENA
                      00397     ;TESTADOR SE PASSOU DE 10 CENTENA
                      00398         ;TESTADOR SE PASSOU DE 10 CENTENA
                      00399 MTESTA_DEZENA_2:    
                      00400 CMP DEZENA, D'10', MD2_CARRY_0,MD2_TESTA11
                      00401 MD2_TESTA11:
                      00402 CMP DEZENA, D'11', MD2_CARRY_1,MD2_TESTA12
                      00403 MD2_TESTA12:
                      00404 CMP DEZENA, D'12', MD2_CARRY_2,MD2_TESTA13
                      00405 MD2_TESTA13:
                      00406 CMP DEZENA, D'13', MD2_CARRY_3,MD2_TESTA14
                      00407 MD2_TESTA14:
                      00408 CMP DEZENA, D'14', MD2_CARRY_4,MD2_TESTA15 
                      00409 MD2_TESTA15:
                      00410 CMP DEZENA, D'15', MD2_CARRY_5,MD2_TESTA16
                      00411 MD2_TESTA16:
                      00412 CMP DEZENA, D'16', MD2_CARRY_6,MD2_TESTA17 
                      00413 MD2_TESTA17:
                      00414 CMP DEZENA, D'17', MD2_CARRY_7,MD2_TESTA18
                      00415 MD2_TESTA18:
                      00416 CMP DEZENA, D'18', MD2_CARRY_8, MD2_TESTA19  
                      00417 MD2_TESTA19:
                      00418 CMP DEZENA, D'19', MD2_CARRY_9, FIM_TESTE_DEZENA_2 
                      00419     
                      00420 MD2_CARRY_0:
                      00421     MOVLW D'0'
                      00422     MOVWF DEZENA
                      00423     INCF CENTENA
                      00424     GOTO FIM_TESTE_DEZENA_2
                      00425 MD2_CARRY_1:
                      00426     MOVLW D'1'
                      00427     MOVWF DEZENA
                      00428     INCF CENTENA
                      00429     GOTO FIM_TESTE_DEZENA_2
                      00430 MD2_CARRY_2:
                      00431     MOVLW D'2'
                      00432     MOVWF DEZENA
                      00433     INCF CENTENA
                      00434     GOTO FIM_TESTE_DEZENA_2
                      00435 MD2_CARRY_3:
                      00436     MOVLW D'3'
                      00437     MOVWF DEZENA
                      00438     INCF CENTENA
                      00439     GOTO FIM_TESTE_DEZENA_2   
                      00440 MD2_CARRY_4:
                      00441     MOVLW D'4'
                      00442     MOVWF DEZENA
                      00443     INCF CENTENA
                      00444     GOTO FIM_TESTE_DEZENA_2    
                      00445 MD2_CARRY_5:
                      00446     MOVLW D'5'
MPASM 5.87                          MAIN.ASM   6-7-2020  18:12:51         PAGE 24


LOC  OBJECT CODE     LINE SOURCE TEXT
  VALUE

                      00447     MOVWF DEZENA
                      00448     INCF CENTENA
                      00449     GOTO FIM_TESTE_DEZENA_2    
                      00450 MD2_CARRY_6:
                      00451     MOVLW D'6'
                      00452     MOVWF DEZENA
                      00453     INCF CENTENA
                      00454     GOTO FIM_TESTE_DEZENA_2    
                      00455 MD2_CARRY_7:
                      00456     MOVLW D'7'
                      00457     MOVWF DEZENA
                      00458     INCF CENTENA
                      00459     GOTO FIM_TESTE_DEZENA_2    
                      00460 MD2_CARRY_8:
                      00461     MOVLW D'8'
                      00462     MOVWF DEZENA
                      00463     INCF CENTENA
                      00464     GOTO FIM_TESTE_DEZENA_2 
                      00465 MD2_CARRY_9:
                      00466     MOVLW D'9'
                      00467     MOVWF DEZENA
                      00468     INCF CENTENA
                      00469     GOTO FIM_TESTE_DEZENA_2     
                      00470     
                      00471     
                      00472 FIM_TESTE_DEZENA_2: 
                      00473     DECF AUX_INPUTU
                      00474     BTFSC STATUS,Z
                      00475     GOTO LOOP_DEZENA_P1
                      00476     RETURN
                      00477 CASE_D1XD2 ;VALOR DE CENTENA
                      00478     MOVF INPUT_D2,W
                      00479     MOVWF AUX_INPUTD
                      00480     LOOP_CENTENA
                      00481     MOVF INPUT_D1,W
                      00482     ADDWF CENTENA,W
                      00483     MOVWF CENTENA
                      00484     ;TESTADOR SE PASSOU DE 10 MILHAR
                      00485     
                      00486     MTESTA_CENTENA:    
                      00487 CMP CENTENA, D'10', MC_CARRY_0,MC_TESTA11
                      00488 MC_TESTA11:
                      00489 CMP CENTENA, D'11', MC_CARRY_1,MC_TESTA12
                      00490 MC_TESTA12:
                      00491 CMP CENTENA, D'12', MC_CARRY_2,MC_TESTA13
                      00492 MC_TESTA13:
                      00493 CMP CENTENA, D'13', MC_CARRY_3,MC_TESTA14
                      00494 MC_TESTA14:
                      00495 CMP CENTENA, D'14', MC_CARRY_4,MC_TESTA15 
                      00496 MC_TESTA15:
                      00497 CMP CENTENA, D'15', MC_CARRY_5,MC_TESTA16
                      00498 MC_TESTA16:
                      00499 CMP CENTENA, D'16', MC_CARRY_6,MC_TESTA17 
MPASM 5.87                          MAIN.ASM   6-7-2020  18:12:51         PAGE 25


LOC  OBJECT CODE     LINE SOURCE TEXT
  VALUE

                      00500 MC_TESTA17:
                      00501 CMP CENTENA, D'17', MC_CARRY_7,MC_TESTA18
                      00502 MC_TESTA18:
                      00503 CMP CENTENA, D'18', MC_CARRY_8,MC_TESTA19  
                      00504 MC_TESTA19:
                      00505 CMP CENTENA, D'19', MC_CARRY_9, FIM_TESTE_CENTENA
                      00506     
                      00507 MC_CARRY_0:
                      00508     MOVLW D'0'
                      00509     MOVWF CENTENA
                      00510     INCF MILHAR
                      00511     GOTO FIM_TESTE_CENTENA
                      00512 MC_CARRY_1:
                      00513     MOVLW D'1'
                      00514     MOVWF CENTENA
                      00515     INCF MILHAR
                      00516     GOTO FIM_TESTE_CENTENA
                      00517 MC_CARRY_2:
                      00518     MOVLW D'2'
                      00519     MOVWF CENTENA
                      00520     INCF MILHAR
                      00521     GOTO FIM_TESTE_CENTENA
                      00522 MC_CARRY_3:
                      00523     MOVLW D'3'
                      00524     MOVWF CENTENA
                      00525     INCF MILHAR
                      00526     GOTO FIM_TESTE_CENTENA   
                      00527 MC_CARRY_4:
                      00528     MOVLW D'4'
                      00529     MOVWF CENTENA
                      00530     INCF MILHAR
                      00531     GOTO FIM_TESTE_CENTENA    
                      00532 MC_CARRY_5:
                      00533     MOVLW D'5'
                      00534     MOVWF CENTENA
                      00535     INCF MILHAR
                      00536     GOTO FIM_TESTE_CENTENA    
                      00537 MC_CARRY_6:
                      00538     MOVLW D'6'
                      00539     MOVWF CENTENA
                      00540     INCF MILHAR
                      00541     GOTO FIM_TESTE_CENTENA    
                      00542 MC_CARRY_7:
                      00543     MOVLW D'7'
                      00544     MOVWF CENTENA
                      00545     INCF MILHAR
                      00546     GOTO FIM_TESTE_CENTENA    
                      00547 MC_CARRY_8:
                      00548     MOVLW D'8'
                      00549     MOVWF CENTENA
                      00550     INCF MILHAR
                      00551     GOTO FIM_TESTE_CENTENA 
                      00552 MC_CARRY_9:
MPASM 5.87                          MAIN.ASM   6-7-2020  18:12:51         PAGE 26


LOC  OBJECT CODE     LINE SOURCE TEXT
  VALUE

                      00553     MOVLW D'9'
                      00554     MOVWF CENTENA
                      00555     INCF MILHAR
                      00556     GOTO FIM_TESTE_CENTENA     
                      00557     
                      00558     
                      00559 FIM_TESTE_CENTENA:
                      00560     DECF AUX_INPUTD
                      00561     BTFSC STATUS,Z
                      00562     GOTO LOOP_CENTENA
                      00563     RETURN
                      00564    
                      00565    
                      00566    
                      00567    
                      00568    
                      00569    
                      00570    
                      00571    
                      00572    
                      00573    
                      00574    
                      00575    
                      00576    
                      00577    
                      00578    
                      00579    
                      00580    
                      00581    
                      00582    
                      00583    
                      00584   ENDM
                      00585 
                      00586 #ENDIF
                      00013  
                      00014 ; __config 0x3F3A
2007   3F3A           00015  __CONFIG _FOSC_HS & _WDTE_OFF & _PWRTE_OFF & _BOREN_OFF & _LVP_OFF & _CPD_OFF & _WRT_OFF & _CP_OFF
                      00016  
                      00017 GPR_VAR        UDATA
Warning[206]: Found call to macro in column 1. (POG_VARIAVEIS)
                      00018 POG_VARIAVEIS   
0000                      M DELAY_FT1   RES  1
0001                      M DELAY_FT2   RES  1  
0002                      M DELAY_FT3   RES  1  
0003                      M RES_SUB     RES  1
0004                      M RES_SOM     RES  1     
0005                      M AUX_INPUTD  RES  1
0006                      M AUX_INPUTU  RES  1     
0007                  00019 MILHAR              RES     1;
0008                  00020 CENTENA             RES     1;
0009                  00021 DEZENA              RES     1;
000A                  00022 UNIDADE             RES     1;
000B                  00023 INPUT_VAL           RES     1;VARIAVEL DE INPUT             
MPASM 5.87                          MAIN.ASM   6-7-2020  18:12:51         PAGE 27


LOC  OBJECT CODE     LINE SOURCE TEXT
  VALUE

000C                  00024 INPUT_D1            RES     1;ENTRADA DEZENA 1                      
000D                  00025 INPUT_U1            RES     1;ENTRADA UNIDADE 1 
000E                  00026 INPUT_D2            RES     1;ENTRADA DEZENA 1                      
000F                  00027 INPUT_U2            RES     1;ENTRADA UNIDADE 1             
                      00028             
                      00029              
                      00030 RES_VECT  CODE    0x0000            ; processor reset vector
0000   2???           00031     GOTO    START                   ; go to beginning of program
                      00032 
                      00033 
                      00034 ISR       CODE    0x0004
                      00035        
Warning[203]: Found opcode in column 1. (RETFIE)
0004   0009           00036 RETFIE
                      00037        
                      00038  
                      00039      
Warning[206]: Found call to macro in column 1. (ENABLE_DELAYS)
                      00040 ENABLE_DELAYS;HABILITA DELAYS       
                          M     ;DELAY DE 1 MILISEGUNDO    
0005                      M DELAY_1MS:
0005   30A5               M     MOVLW D'165'       
0006   00??               M     MOVWF DELAY_FT1
0007                      M DELAY_LOOP:
0007   0B??               M     DECFSZ DELAY_FT1, 1    
0008   2???               M     GOTO  DELAY_LOOP 
0009   0008               M     RETURN
                          M     
000A                      M DELAY_255:
000A   30A5               M     MOVLW D'165' 
000B   00??               M     MOVWF DELAY_FT1
000C   30FF               M     MOVLW D'255' 
000D   00??               M     MOVWF DELAY_FT2
000E                      M DELAY_LP:
000E   0B??               M     DECFSZ DELAY_FT1, 1 
000F   2???               M     GOTO DELAY_LP 
0010   0B??               M     DECFSZ DELAY_FT2, 1
0011   2???               M     GOTO DELAY_LP
0012   0008               M     RETURN     
                          M  
Warning[206]: Found call to macro in column 1. (ENABLE_DISPLAY)
                      00041 ENABLE_DISPLAY;HABILITA O DISPLAY       
                          M ;CONFIGURA O DISPLAY PRA SAIDA DE DADOS 
0013                      M CONFIG_DISPLAY:
                          M     BANK1
0013   1303               M  BCF STATUS, RP1;RP1:RP0
0014   1683               M  BSF STATUS, RP0
0015   3008               M     MOVLW   B'00001000'
Message[302]: Register in operand not in bank 0.  Ensure that bank bits are correct.
0016   0086               M     MOVWF   TRISB
Message[302]: Register in operand not in bank 0.  Ensure that bank bits are correct.
0017   0188               M     CLRF    TRISD
Message[302]: Register in operand not in bank 0.  Ensure that bank bits are correct.
MPASM 5.87                          MAIN.ASM   6-7-2020  18:12:51         PAGE 28


LOC  OBJECT CODE     LINE SOURCE TEXT
  VALUE

0018   0185               M     CLRF    TRISA
                          M     BANK0
0019   1303               M  BCF STATUS, RP1;RP1:RP0
001A   1283               M  BCF STATUS, RP0
001B   0186               M     CLRF PORTB 
001C   0188               M     CLRF PORTD
001D   0008               M     RETURN 
                          M     
                          M ;ATIVA O DISPLAY 1    
001E                      M ATIVA_DISPLAY_1:
001E   3020               M     MOVLW DISPLAY_1
001F   0085               M     MOVWF PORTA
0020   0008               M     RETURN
                          M ;ATIVA O DISPLAY 2    
0021                      M ATIVA_DISPLAY_2:
0021   3004               M     MOVLW DISPLAY_2
0022   0085               M     MOVWF PORTA
0023   0008               M     RETURN    
                          M ;ATIVA O DISPLAY 3    
0024                      M ATIVA_DISPLAY_3:
0024   3008               M     MOVLW DISPLAY_3
0025   0085               M     MOVWF PORTA
0026   0008               M     RETURN
                          M ;ATIVA O DISPLAY 4    
0027                      M ATIVA_DISPLAY_4:
0027   3010               M     MOVLW DISPLAY_4
0028   0085               M     MOVWF PORTA
0029   0008               M     RETURN   
                          M     
Warning[206]: Found call to macro in column 1. (USE_DISPLAY)
                      00042 USE_DISPLAY;HABILITA OS PRINTS NO DISPLAY
                          M ;PRINTS DO DISPLAY 
002A                      M PRINT_0:
002A   303F               M     MOVLW ZERO ;0
002B   0088               M     MOVWF PORTD
                          M     ;CALL DELAY_1MS
                          M     ;CALL DELAY_1MS
002C   0008               M     RETURN 
002D                      M PRINT_1:
002D   3006               M     MOVLW UM ;1
002E   0088               M     MOVWF PORTD
                          M     ;CALL DELAY_1MS
                          M     ;CALL DELAY_1MS
002F   0008               M     RETURN 
0030                      M PRINT_2:   
0030   305B               M     MOVLW DOIS ;2
0031   0088               M     MOVWF PORTD
                          M     ;CALL DELAY_1MS
                          M     ;CALL DELAY_1MS
0032   0008               M     RETURN 
0033                      M PRINT_3:
0033   304F               M     MOVLW TRES ;3
0034   0088               M     MOVWF PORTD
MPASM 5.87                          MAIN.ASM   6-7-2020  18:12:51         PAGE 29


LOC  OBJECT CODE     LINE SOURCE TEXT
  VALUE

                          M     ;CALL DELAY_1MS
                          M     ;CALL DELAY_1MS
0035   0008               M     RETURN 
0036                      M PRINT_4:
0036   3066               M     MOVLW QUATRO ;4
0037   0088               M     MOVWF PORTD
                          M     ;CALL DELAY_1MS
                          M     ;CALL DELAY_1MS
0038   0008               M     RETURN 
0039                      M PRINT_5:
0039   306D               M     MOVLW CINCO ;5
003A   0088               M     MOVWF PORTD
                          M     ;CALL DELAY_1MS
                          M     ;;CALL DELAY_1MS
003B   0008               M     RETURN 
003C                      M PRINT_6:
003C   307D               M     MOVLW SEIS ;6
003D   0088               M     MOVWF PORTD
                          M     ;CALL DELAY_1MS
                          M     ;CALL DELAY_1MS
003E   0008               M     RETURN 
003F                      M PRINT_7:
003F   3027               M     MOVLW SETE ;7
0040   0088               M     MOVWF PORTD
                          M     ;CALL DELAY_1MS
                          M     ;CALL DELAY_1MS
0041   0008               M     RETURN 
0042                      M PRINT_8:
0042   307F               M     MOVLW OITO ;8
0043   0088               M     MOVWF PORTD
                          M     ;CALL DELAY_1MS
                          M     ;CALL DELAY_1MS
0044   0008               M     RETURN 
0045                      M PRINT_9:
0045   3067               M     MOVLW NOVE ;9
0046   0088               M     MOVWF PORTD
                          M     ;CALL DELAY_1MS
                          M     ;CALL DELAY_1MS
0047   0008               M     RETURN
                          M     
Warning[206]: Found call to macro in column 1. (SHOW_ALL_DISPLAYS)
                      00043 SHOW_ALL_DISPLAYS MILHAR,CENTENA,DEZENA,UNIDADE ;PASSO AS QUATRO VARIAVEIS PRA MACRO  
                          M  
0048                      M SHOW_NUMBERS:
                          M     ;MOSTRAR O VALOR DO MILHAR
0048   2???               M     CALL ATIVA_DISPLAY_1
                          M     ;COMPARANDO O MILHAR COM O NUMERO PARA PRINTAR NO DISPLAY
                          M     CMP MILHAR, D'9', TRUE_MILHAR_9, FALSE_MILHAR_8
0049   08??               M     MOVF MILHAR,0
004A   3C09               M     SUBLW D'9'
004B   00??               M     MOVWF RES_SUB
Message[305]: Using default destination of 1 (file).
004C   03??               M     DECF RES_SUB
MPASM 5.87                          MAIN.ASM   6-7-2020  18:12:51         PAGE 30


LOC  OBJECT CODE     LINE SOURCE TEXT
  VALUE

Message[305]: Using default destination of 1 (file).
004D   0F??               M     INCFSZ RES_SUB
004E   2???               M     GOTO FALSE_MILHAR_8
004F   2???               M     GOTO TRUE_MILHAR_9
0050                      M FALSE_MILHAR_8:
                          M     CMP MILHAR, D'8', TRUE_MILHAR_8, FALSE_MILHAR_7
0050   08??               M     MOVF MILHAR,0
0051   3C08               M     SUBLW D'8'
0052   00??               M     MOVWF RES_SUB
Message[305]: Using default destination of 1 (file).
0053   03??               M     DECF RES_SUB
Message[305]: Using default destination of 1 (file).
0054   0F??               M     INCFSZ RES_SUB
0055   2???               M     GOTO FALSE_MILHAR_7
0056   2???               M     GOTO TRUE_MILHAR_8
0057                      M FALSE_MILHAR_7:
                          M     CMP MILHAR, D'7', TRUE_MILHAR_7, FALSE_MILHAR_6
0057   08??               M     MOVF MILHAR,0
0058   3C07               M     SUBLW D'7'
0059   00??               M     MOVWF RES_SUB
Message[305]: Using default destination of 1 (file).
005A   03??               M     DECF RES_SUB
Message[305]: Using default destination of 1 (file).
005B   0F??               M     INCFSZ RES_SUB
005C   2???               M     GOTO FALSE_MILHAR_6
005D   2???               M     GOTO TRUE_MILHAR_7
005E                      M FALSE_MILHAR_6:
                          M     CMP MILHAR, D'6', TRUE_MILHAR_6, FALSE_MILHAR_5
005E   08??               M     MOVF MILHAR,0
005F   3C06               M     SUBLW D'6'
0060   00??               M     MOVWF RES_SUB
Message[305]: Using default destination of 1 (file).
0061   03??               M     DECF RES_SUB
Message[305]: Using default destination of 1 (file).
0062   0F??               M     INCFSZ RES_SUB
0063   2???               M     GOTO FALSE_MILHAR_5
0064   2???               M     GOTO TRUE_MILHAR_6
0065                      M FALSE_MILHAR_5:
                          M     CMP MILHAR, D'5', TRUE_MILHAR_5, FALSE_MILHAR_4
0065   08??               M     MOVF MILHAR,0
0066   3C05               M     SUBLW D'5'
0067   00??               M     MOVWF RES_SUB
Message[305]: Using default destination of 1 (file).
0068   03??               M     DECF RES_SUB
Message[305]: Using default destination of 1 (file).
0069   0F??               M     INCFSZ RES_SUB
006A   2???               M     GOTO FALSE_MILHAR_4
006B   2???               M     GOTO TRUE_MILHAR_5
006C                      M FALSE_MILHAR_4:
                          M     CMP MILHAR, D'4', TRUE_MILHAR_4, FALSE_MILHAR_3
006C   08??               M     MOVF MILHAR,0
006D   3C04               M     SUBLW D'4'
006E   00??               M     MOVWF RES_SUB
MPASM 5.87                          MAIN.ASM   6-7-2020  18:12:51         PAGE 31


LOC  OBJECT CODE     LINE SOURCE TEXT
  VALUE

Message[305]: Using default destination of 1 (file).
006F   03??               M     DECF RES_SUB
Message[305]: Using default destination of 1 (file).
0070   0F??               M     INCFSZ RES_SUB
0071   2???               M     GOTO FALSE_MILHAR_3
0072   2???               M     GOTO TRUE_MILHAR_4
0073                      M FALSE_MILHAR_3:
                          M     CMP MILHAR, D'3', TRUE_MILHAR_3, FALSE_MILHAR_2
0073   08??               M     MOVF MILHAR,0
0074   3C03               M     SUBLW D'3'
0075   00??               M     MOVWF RES_SUB
Message[305]: Using default destination of 1 (file).
0076   03??               M     DECF RES_SUB
Message[305]: Using default destination of 1 (file).
0077   0F??               M     INCFSZ RES_SUB
0078   2???               M     GOTO FALSE_MILHAR_2
0079   2???               M     GOTO TRUE_MILHAR_3
007A                      M FALSE_MILHAR_2:
                          M     CMP MILHAR, D'2', TRUE_MILHAR_2, FALSE_MILHAR_1
007A   08??               M     MOVF MILHAR,0
007B   3C02               M     SUBLW D'2'
007C   00??               M     MOVWF RES_SUB
Message[305]: Using default destination of 1 (file).
007D   03??               M     DECF RES_SUB
Message[305]: Using default destination of 1 (file).
007E   0F??               M     INCFSZ RES_SUB
007F   2???               M     GOTO FALSE_MILHAR_1
0080   2???               M     GOTO TRUE_MILHAR_2
0081                      M FALSE_MILHAR_1:
                          M     CMP MILHAR, D'1', TRUE_MILHAR_1, FALSE_MILHAR_0
0081   08??               M     MOVF MILHAR,0
0082   3C01               M     SUBLW D'1'
0083   00??               M     MOVWF RES_SUB
Message[305]: Using default destination of 1 (file).
0084   03??               M     DECF RES_SUB
Message[305]: Using default destination of 1 (file).
0085   0F??               M     INCFSZ RES_SUB
0086   2???               M     GOTO FALSE_MILHAR_0
0087   2???               M     GOTO TRUE_MILHAR_1
0088                      M FALSE_MILHAR_0:
                          M     CMP MILHAR, D'0', TRUE_MILHAR_0, SHOW_CENTENA
0088   08??               M     MOVF MILHAR,0
0089   3C00               M     SUBLW D'0'
008A   00??               M     MOVWF RES_SUB
Message[305]: Using default destination of 1 (file).
008B   03??               M     DECF RES_SUB
Message[305]: Using default destination of 1 (file).
008C   0F??               M     INCFSZ RES_SUB
008D   2???               M     GOTO SHOW_CENTENA
008E   2???               M     GOTO TRUE_MILHAR_0
                          M     ;PRINTANDO OS VALORES DO MILHAR
008F                      M TRUE_MILHAR_9:
008F   2???               M     CALL PRINT_9
MPASM 5.87                          MAIN.ASM   6-7-2020  18:12:51         PAGE 32


LOC  OBJECT CODE     LINE SOURCE TEXT
  VALUE

0090   2???               M     GOTO SHOW_CENTENA
0091                      M TRUE_MILHAR_8:
0091   2???               M     CALL PRINT_8
0092   2???               M     GOTO SHOW_CENTENA
0093                      M TRUE_MILHAR_7:
0093   2???               M     CALL PRINT_7
0094   2???               M     GOTO SHOW_CENTENA
0095                      M TRUE_MILHAR_6:
0095   2???               M     CALL PRINT_6
0096   2???               M     GOTO SHOW_CENTENA
0097                      M TRUE_MILHAR_5:
0097   2???               M     CALL PRINT_5
0098   2???               M     GOTO SHOW_CENTENA
0099                      M TRUE_MILHAR_4:
0099   2???               M     CALL PRINT_4
009A   2???               M     GOTO SHOW_CENTENA
009B                      M TRUE_MILHAR_3:
009B   2???               M     CALL PRINT_3
009C   2???               M     GOTO SHOW_CENTENA
009D                      M TRUE_MILHAR_2:
009D   2???               M     CALL PRINT_2
009E   2???               M     GOTO SHOW_CENTENA
009F                      M TRUE_MILHAR_1:
009F   2???               M     CALL PRINT_1
00A0   2???               M     GOTO SHOW_CENTENA
00A1                      M TRUE_MILHAR_0:
00A1   2???               M     CALL PRINT_0
00A2   2???               M     GOTO SHOW_CENTENA
                          M    
00A3                      M SHOW_CENTENA:
                          M     ;MOSTRAR O VALOR DA CENTENA
00A3   2???               M     CALL ATIVA_DISPLAY_2
                          M     ;COMPARANDO O MILHAR COM O NUMERO PARA PRINTAR NO DISPLAY
                          M     CMP CENTENA, D'9', TRUE_CENTENA_9, FALSE_CENTENA_8
00A4   08??               M     MOVF CENTENA,0
00A5   3C09               M     SUBLW D'9'
00A6   00??               M     MOVWF RES_SUB
Message[305]: Using default destination of 1 (file).
00A7   03??               M     DECF RES_SUB
Message[305]: Using default destination of 1 (file).
00A8   0F??               M     INCFSZ RES_SUB
00A9   2???               M     GOTO FALSE_CENTENA_8
00AA   2???               M     GOTO TRUE_CENTENA_9
00AB                      M FALSE_CENTENA_8:
                          M     CMP CENTENA, D'8', TRUE_CENTENA_8, FALSE_CENTENA_7
00AB   08??               M     MOVF CENTENA,0
00AC   3C08               M     SUBLW D'8'
00AD   00??               M     MOVWF RES_SUB
Message[305]: Using default destination of 1 (file).
00AE   03??               M     DECF RES_SUB
Message[305]: Using default destination of 1 (file).
00AF   0F??               M     INCFSZ RES_SUB
00B0   2???               M     GOTO FALSE_CENTENA_7
MPASM 5.87                          MAIN.ASM   6-7-2020  18:12:51         PAGE 33


LOC  OBJECT CODE     LINE SOURCE TEXT
  VALUE

00B1   2???               M     GOTO TRUE_CENTENA_8
00B2                      M FALSE_CENTENA_7:
                          M     CMP CENTENA, D'7', TRUE_CENTENA_7, FALSE_CENTENA_6
00B2   08??               M     MOVF CENTENA,0
00B3   3C07               M     SUBLW D'7'
00B4   00??               M     MOVWF RES_SUB
Message[305]: Using default destination of 1 (file).
00B5   03??               M     DECF RES_SUB
Message[305]: Using default destination of 1 (file).
00B6   0F??               M     INCFSZ RES_SUB
00B7   2???               M     GOTO FALSE_CENTENA_6
00B8   2???               M     GOTO TRUE_CENTENA_7
00B9                      M FALSE_CENTENA_6:
                          M     CMP CENTENA, D'6', TRUE_CENTENA_6, FALSE_CENTENA_5
00B9   08??               M     MOVF CENTENA,0
00BA   3C06               M     SUBLW D'6'
00BB   00??               M     MOVWF RES_SUB
Message[305]: Using default destination of 1 (file).
00BC   03??               M     DECF RES_SUB
Message[305]: Using default destination of 1 (file).
00BD   0F??               M     INCFSZ RES_SUB
00BE   2???               M     GOTO FALSE_CENTENA_5
00BF   2???               M     GOTO TRUE_CENTENA_6
00C0                      M FALSE_CENTENA_5:
                          M     CMP CENTENA, D'5', TRUE_CENTENA_5, FALSE_CENTENA_4
00C0   08??               M     MOVF CENTENA,0
00C1   3C05               M     SUBLW D'5'
00C2   00??               M     MOVWF RES_SUB
Message[305]: Using default destination of 1 (file).
00C3   03??               M     DECF RES_SUB
Message[305]: Using default destination of 1 (file).
00C4   0F??               M     INCFSZ RES_SUB
00C5   2???               M     GOTO FALSE_CENTENA_4
00C6   2???               M     GOTO TRUE_CENTENA_5
00C7                      M FALSE_CENTENA_4:
                          M     CMP CENTENA, D'4', TRUE_CENTENA_4, FALSE_CENTENA_3
00C7   08??               M     MOVF CENTENA,0
00C8   3C04               M     SUBLW D'4'
00C9   00??               M     MOVWF RES_SUB
Message[305]: Using default destination of 1 (file).
00CA   03??               M     DECF RES_SUB
Message[305]: Using default destination of 1 (file).
00CB   0F??               M     INCFSZ RES_SUB
00CC   2???               M     GOTO FALSE_CENTENA_3
00CD   2???               M     GOTO TRUE_CENTENA_4
00CE                      M FALSE_CENTENA_3:
                          M     CMP CENTENA, D'3', TRUE_CENTENA_3, FALSE_CENTENA_2
00CE   08??               M     MOVF CENTENA,0
00CF   3C03               M     SUBLW D'3'
00D0   00??               M     MOVWF RES_SUB
Message[305]: Using default destination of 1 (file).
00D1   03??               M     DECF RES_SUB
Message[305]: Using default destination of 1 (file).
MPASM 5.87                          MAIN.ASM   6-7-2020  18:12:51         PAGE 34


LOC  OBJECT CODE     LINE SOURCE TEXT
  VALUE

00D2   0F??               M     INCFSZ RES_SUB
00D3   2???               M     GOTO FALSE_CENTENA_2
00D4   2???               M     GOTO TRUE_CENTENA_3
00D5                      M FALSE_CENTENA_2:
                          M     CMP CENTENA, D'2', TRUE_CENTENA_2, FALSE_CENTENA_1
00D5   08??               M     MOVF CENTENA,0
00D6   3C02               M     SUBLW D'2'
00D7   00??               M     MOVWF RES_SUB
Message[305]: Using default destination of 1 (file).
00D8   03??               M     DECF RES_SUB
Message[305]: Using default destination of 1 (file).
00D9   0F??               M     INCFSZ RES_SUB
00DA   2???               M     GOTO FALSE_CENTENA_1
00DB   2???               M     GOTO TRUE_CENTENA_2
00DC                      M FALSE_CENTENA_1:
                          M     CMP CENTENA, D'1', TRUE_CENTENA_1, FALSE_CENTENA_0
00DC   08??               M     MOVF CENTENA,0
00DD   3C01               M     SUBLW D'1'
00DE   00??               M     MOVWF RES_SUB
Message[305]: Using default destination of 1 (file).
00DF   03??               M     DECF RES_SUB
Message[305]: Using default destination of 1 (file).
00E0   0F??               M     INCFSZ RES_SUB
00E1   2???               M     GOTO FALSE_CENTENA_0
00E2   2???               M     GOTO TRUE_CENTENA_1
00E3                      M FALSE_CENTENA_0:
                          M     CMP CENTENA, D'0', TRUE_CENTENA_0, SHOW_DEZENA
00E3   08??               M     MOVF CENTENA,0
00E4   3C00               M     SUBLW D'0'
00E5   00??               M     MOVWF RES_SUB
Message[305]: Using default destination of 1 (file).
00E6   03??               M     DECF RES_SUB
Message[305]: Using default destination of 1 (file).
00E7   0F??               M     INCFSZ RES_SUB
00E8   2???               M     GOTO SHOW_DEZENA
00E9   2???               M     GOTO TRUE_CENTENA_0
                          M     ;PRINTANDO OS VALORES DO MILHAR
00EA                      M TRUE_CENTENA_9:
00EA   2???               M     CALL PRINT_9
00EB   2???               M     GOTO SHOW_DEZENA
00EC                      M TRUE_CENTENA_8:
00EC   2???               M     CALL PRINT_8
00ED   2???               M     GOTO SHOW_DEZENA
00EE                      M TRUE_CENTENA_7:
00EE   2???               M     CALL PRINT_7
00EF   2???               M     GOTO SHOW_DEZENA
00F0                      M TRUE_CENTENA_6:
00F0   2???               M     CALL PRINT_6
00F1   2???               M     GOTO SHOW_DEZENA
00F2                      M TRUE_CENTENA_5:
00F2   2???               M     CALL PRINT_5
00F3   2???               M     GOTO SHOW_DEZENA
00F4                      M TRUE_CENTENA_4:
MPASM 5.87                          MAIN.ASM   6-7-2020  18:12:51         PAGE 35


LOC  OBJECT CODE     LINE SOURCE TEXT
  VALUE

00F4   2???               M     CALL PRINT_4
00F5   2???               M     GOTO SHOW_DEZENA
00F6                      M TRUE_CENTENA_3:
00F6   2???               M     CALL PRINT_3
00F7   2???               M     GOTO SHOW_DEZENA
00F8                      M TRUE_CENTENA_2:
00F8   2???               M     CALL PRINT_2
00F9   2???               M     GOTO SHOW_DEZENA
00FA                      M TRUE_CENTENA_1:
00FA   2???               M     CALL PRINT_1
00FB   2???               M     GOTO SHOW_DEZENA
00FC                      M TRUE_CENTENA_0:
00FC   2???               M     CALL PRINT_0
00FD   2???               M     GOTO SHOW_DEZENA   
                          M     
00FE                      M SHOW_DEZENA:
                          M     ;MOSTRAR O VALOR DA CENTENA
00FE   2???               M     CALL ATIVA_DISPLAY_3
                          M     ;COMPARANDO O MILHAR COM O NUMERO PARA PRINTAR NO DISPLAY
                          M     CMP DEZENA, D'9', TRUE_DEZENA_9, FALSE_DEZENA_8
00FF   08??               M     MOVF DEZENA,0
0100   3C09               M     SUBLW D'9'
0101   00??               M     MOVWF RES_SUB
Message[305]: Using default destination of 1 (file).
0102   03??               M     DECF RES_SUB
Message[305]: Using default destination of 1 (file).
0103   0F??               M     INCFSZ RES_SUB
0104   2???               M     GOTO FALSE_DEZENA_8
0105   2???               M     GOTO TRUE_DEZENA_9
0106                      M FALSE_DEZENA_8:
                          M     CMP DEZENA, D'8', TRUE_DEZENA_8, FALSE_DEZENA_7
0106   08??               M     MOVF DEZENA,0
0107   3C08               M     SUBLW D'8'
0108   00??               M     MOVWF RES_SUB
Message[305]: Using default destination of 1 (file).
0109   03??               M     DECF RES_SUB
Message[305]: Using default destination of 1 (file).
010A   0F??               M     INCFSZ RES_SUB
010B   2???               M     GOTO FALSE_DEZENA_7
010C   2???               M     GOTO TRUE_DEZENA_8
010D                      M FALSE_DEZENA_7:
                          M     CMP DEZENA, D'7', TRUE_DEZENA_7, FALSE_DEZENA_6
010D   08??               M     MOVF DEZENA,0
010E   3C07               M     SUBLW D'7'
010F   00??               M     MOVWF RES_SUB
Message[305]: Using default destination of 1 (file).
0110   03??               M     DECF RES_SUB
Message[305]: Using default destination of 1 (file).
0111   0F??               M     INCFSZ RES_SUB
0112   2???               M     GOTO FALSE_DEZENA_6
0113   2???               M     GOTO TRUE_DEZENA_7
0114                      M FALSE_DEZENA_6:
                          M     CMP DEZENA, D'6', TRUE_DEZENA_6, FALSE_DEZENA_5
MPASM 5.87                          MAIN.ASM   6-7-2020  18:12:51         PAGE 36


LOC  OBJECT CODE     LINE SOURCE TEXT
  VALUE

0114   08??               M     MOVF DEZENA,0
0115   3C06               M     SUBLW D'6'
0116   00??               M     MOVWF RES_SUB
Message[305]: Using default destination of 1 (file).
0117   03??               M     DECF RES_SUB
Message[305]: Using default destination of 1 (file).
0118   0F??               M     INCFSZ RES_SUB
0119   2???               M     GOTO FALSE_DEZENA_5
011A   2???               M     GOTO TRUE_DEZENA_6
011B                      M FALSE_DEZENA_5:
                          M     CMP DEZENA, D'5', TRUE_DEZENA_5, FALSE_DEZENA_4
011B   08??               M     MOVF DEZENA,0
011C   3C05               M     SUBLW D'5'
011D   00??               M     MOVWF RES_SUB
Message[305]: Using default destination of 1 (file).
011E   03??               M     DECF RES_SUB
Message[305]: Using default destination of 1 (file).
011F   0F??               M     INCFSZ RES_SUB
0120   2???               M     GOTO FALSE_DEZENA_4
0121   2???               M     GOTO TRUE_DEZENA_5
0122                      M FALSE_DEZENA_4:
                          M     CMP DEZENA, D'4', TRUE_DEZENA_4, FALSE_DEZENA_3
0122   08??               M     MOVF DEZENA,0
0123   3C04               M     SUBLW D'4'
0124   00??               M     MOVWF RES_SUB
Message[305]: Using default destination of 1 (file).
0125   03??               M     DECF RES_SUB
Message[305]: Using default destination of 1 (file).
0126   0F??               M     INCFSZ RES_SUB
0127   2???               M     GOTO FALSE_DEZENA_3
0128   2???               M     GOTO TRUE_DEZENA_4
0129                      M FALSE_DEZENA_3:
                          M     CMP DEZENA, D'3', TRUE_DEZENA_3, FALSE_DEZENA_2
0129   08??               M     MOVF DEZENA,0
012A   3C03               M     SUBLW D'3'
012B   00??               M     MOVWF RES_SUB
Message[305]: Using default destination of 1 (file).
012C   03??               M     DECF RES_SUB
Message[305]: Using default destination of 1 (file).
012D   0F??               M     INCFSZ RES_SUB
012E   2???               M     GOTO FALSE_DEZENA_2
012F   2???               M     GOTO TRUE_DEZENA_3
0130                      M FALSE_DEZENA_2:
                          M     CMP DEZENA, D'2', TRUE_DEZENA_2, FALSE_DEZENA_1
0130   08??               M     MOVF DEZENA,0
0131   3C02               M     SUBLW D'2'
0132   00??               M     MOVWF RES_SUB
Message[305]: Using default destination of 1 (file).
0133   03??               M     DECF RES_SUB
Message[305]: Using default destination of 1 (file).
0134   0F??               M     INCFSZ RES_SUB
0135   2???               M     GOTO FALSE_DEZENA_1
0136   2???               M     GOTO TRUE_DEZENA_2
MPASM 5.87                          MAIN.ASM   6-7-2020  18:12:51         PAGE 37


LOC  OBJECT CODE     LINE SOURCE TEXT
  VALUE

0137                      M FALSE_DEZENA_1:
                          M     CMP DEZENA, D'1', TRUE_DEZENA_1, FALSE_DEZENA_0
0137   08??               M     MOVF DEZENA,0
0138   3C01               M     SUBLW D'1'
0139   00??               M     MOVWF RES_SUB
Message[305]: Using default destination of 1 (file).
013A   03??               M     DECF RES_SUB
Message[305]: Using default destination of 1 (file).
013B   0F??               M     INCFSZ RES_SUB
013C   2???               M     GOTO FALSE_DEZENA_0
013D   2???               M     GOTO TRUE_DEZENA_1
013E                      M FALSE_DEZENA_0:
                          M     CMP DEZENA, D'0', TRUE_DEZENA_0, SHOW_UNIDADE
013E   08??               M     MOVF DEZENA,0
013F   3C00               M     SUBLW D'0'
0140   00??               M     MOVWF RES_SUB
Message[305]: Using default destination of 1 (file).
0141   03??               M     DECF RES_SUB
Message[305]: Using default destination of 1 (file).
0142   0F??               M     INCFSZ RES_SUB
0143   2???               M     GOTO SHOW_UNIDADE
0144   2???               M     GOTO TRUE_DEZENA_0
                          M     ;PRINTANDO OS VALORES DO MILHAR
0145                      M TRUE_DEZENA_9:
0145   2???               M     CALL PRINT_9
0146   2???               M     GOTO SHOW_UNIDADE
0147                      M TRUE_DEZENA_8:
0147   2???               M     CALL PRINT_8
0148   2???               M     GOTO SHOW_UNIDADE
0149                      M TRUE_DEZENA_7:
0149   2???               M     CALL PRINT_7
014A   2???               M     GOTO SHOW_UNIDADE
014B                      M TRUE_DEZENA_6:
014B   2???               M     CALL PRINT_6
014C   2???               M     GOTO SHOW_UNIDADE
014D                      M TRUE_DEZENA_5:
014D   2???               M     CALL PRINT_5
014E   2???               M     GOTO SHOW_UNIDADE
014F                      M TRUE_DEZENA_4:
014F   2???               M     CALL PRINT_4
0150   2???               M     GOTO SHOW_UNIDADE
0151                      M TRUE_DEZENA_3:
0151   2???               M     CALL PRINT_3
0152   2???               M     GOTO SHOW_UNIDADE
0153                      M TRUE_DEZENA_2:
0153   2???               M     CALL PRINT_2
0154   2???               M     GOTO SHOW_UNIDADE
0155                      M TRUE_DEZENA_1:
0155   2???               M     CALL PRINT_1
0156   2???               M     GOTO SHOW_UNIDADE
0157                      M TRUE_DEZENA_0:
0157   2???               M     CALL PRINT_0
0158   2???               M     GOTO SHOW_UNIDADE
MPASM 5.87                          MAIN.ASM   6-7-2020  18:12:51         PAGE 38


LOC  OBJECT CODE     LINE SOURCE TEXT
  VALUE

                          M  
0159                      M SHOW_UNIDADE:
                          M     ;MOSTRAR O VALOR DA CENTENA
0159   2???               M     CALL ATIVA_DISPLAY_4
                          M     ;COMPARANDO O MILHAR COM O NUMERO PARA PRINTAR NO DISPLAY
                          M     CMP UNIDADE, D'9', TRUE_UNIDADE_9, FALSE_UNIDADE_8
015A   08??               M     MOVF UNIDADE,0
015B   3C09               M     SUBLW D'9'
015C   00??               M     MOVWF RES_SUB
Message[305]: Using default destination of 1 (file).
015D   03??               M     DECF RES_SUB
Message[305]: Using default destination of 1 (file).
015E   0F??               M     INCFSZ RES_SUB
015F   2???               M     GOTO FALSE_UNIDADE_8
0160   2???               M     GOTO TRUE_UNIDADE_9
0161                      M FALSE_UNIDADE_8:
                          M     CMP UNIDADE, D'8', TRUE_UNIDADE_8, FALSE_UNIDADE_7
0161   08??               M     MOVF UNIDADE,0
0162   3C08               M     SUBLW D'8'
0163   00??               M     MOVWF RES_SUB
Message[305]: Using default destination of 1 (file).
0164   03??               M     DECF RES_SUB
Message[305]: Using default destination of 1 (file).
0165   0F??               M     INCFSZ RES_SUB
0166   2???               M     GOTO FALSE_UNIDADE_7
0167   2???               M     GOTO TRUE_UNIDADE_8
0168                      M FALSE_UNIDADE_7:
                          M     CMP UNIDADE, D'7', TRUE_UNIDADE_7, FALSE_UNIDADE_6
0168   08??               M     MOVF UNIDADE,0
0169   3C07               M     SUBLW D'7'
016A   00??               M     MOVWF RES_SUB
Message[305]: Using default destination of 1 (file).
016B   03??               M     DECF RES_SUB
Message[305]: Using default destination of 1 (file).
016C   0F??               M     INCFSZ RES_SUB
016D   2???               M     GOTO FALSE_UNIDADE_6
016E   2???               M     GOTO TRUE_UNIDADE_7
016F                      M FALSE_UNIDADE_6:
                          M     CMP UNIDADE, D'6', TRUE_UNIDADE_6, FALSE_UNIDADE_5
016F   08??               M     MOVF UNIDADE,0
0170   3C06               M     SUBLW D'6'
0171   00??               M     MOVWF RES_SUB
Message[305]: Using default destination of 1 (file).
0172   03??               M     DECF RES_SUB
Message[305]: Using default destination of 1 (file).
0173   0F??               M     INCFSZ RES_SUB
0174   2???               M     GOTO FALSE_UNIDADE_5
0175   2???               M     GOTO TRUE_UNIDADE_6
0176                      M FALSE_UNIDADE_5:
                          M     CMP UNIDADE, D'5', TRUE_UNIDADE_5, FALSE_UNIDADE_4
0176   08??               M     MOVF UNIDADE,0
0177   3C05               M     SUBLW D'5'
0178   00??               M     MOVWF RES_SUB
MPASM 5.87                          MAIN.ASM   6-7-2020  18:12:51         PAGE 39


LOC  OBJECT CODE     LINE SOURCE TEXT
  VALUE

Message[305]: Using default destination of 1 (file).
0179   03??               M     DECF RES_SUB
Message[305]: Using default destination of 1 (file).
017A   0F??               M     INCFSZ RES_SUB
017B   2???               M     GOTO FALSE_UNIDADE_4
017C   2???               M     GOTO TRUE_UNIDADE_5
017D                      M FALSE_UNIDADE_4:
                          M     CMP UNIDADE, D'4', TRUE_UNIDADE_4, FALSE_UNIDADE_3
017D   08??               M     MOVF UNIDADE,0
017E   3C04               M     SUBLW D'4'
017F   00??               M     MOVWF RES_SUB
Message[305]: Using default destination of 1 (file).
0180   03??               M     DECF RES_SUB
Message[305]: Using default destination of 1 (file).
0181   0F??               M     INCFSZ RES_SUB
0182   2???               M     GOTO FALSE_UNIDADE_3
0183   2???               M     GOTO TRUE_UNIDADE_4
0184                      M FALSE_UNIDADE_3:
                          M     CMP UNIDADE, D'3', TRUE_UNIDADE_3, FALSE_UNIDADE_2
0184   08??               M     MOVF UNIDADE,0
0185   3C03               M     SUBLW D'3'
0186   00??               M     MOVWF RES_SUB
Message[305]: Using default destination of 1 (file).
0187   03??               M     DECF RES_SUB
Message[305]: Using default destination of 1 (file).
0188   0F??               M     INCFSZ RES_SUB
0189   2???               M     GOTO FALSE_UNIDADE_2
018A   2???               M     GOTO TRUE_UNIDADE_3
018B                      M FALSE_UNIDADE_2:
                          M     CMP UNIDADE, D'2', TRUE_UNIDADE_2, FALSE_UNIDADE_1
018B   08??               M     MOVF UNIDADE,0
018C   3C02               M     SUBLW D'2'
018D   00??               M     MOVWF RES_SUB
Message[305]: Using default destination of 1 (file).
018E   03??               M     DECF RES_SUB
Message[305]: Using default destination of 1 (file).
018F   0F??               M     INCFSZ RES_SUB
0190   2???               M     GOTO FALSE_UNIDADE_1
0191   2???               M     GOTO TRUE_UNIDADE_2
0192                      M FALSE_UNIDADE_1:
                          M     CMP UNIDADE, D'1', TRUE_UNIDADE_1, FALSE_UNIDADE_0
0192   08??               M     MOVF UNIDADE,0
0193   3C01               M     SUBLW D'1'
0194   00??               M     MOVWF RES_SUB
Message[305]: Using default destination of 1 (file).
0195   03??               M     DECF RES_SUB
Message[305]: Using default destination of 1 (file).
0196   0F??               M     INCFSZ RES_SUB
0197   2???               M     GOTO FALSE_UNIDADE_0
0198   2???               M     GOTO TRUE_UNIDADE_1
0199                      M FALSE_UNIDADE_0:
                          M     CMP UNIDADE, D'0', TRUE_UNIDADE_0, FINAL
0199   08??               M     MOVF UNIDADE,0
MPASM 5.87                          MAIN.ASM   6-7-2020  18:12:51         PAGE 40


LOC  OBJECT CODE     LINE SOURCE TEXT
  VALUE

019A   3C00               M     SUBLW D'0'
019B   00??               M     MOVWF RES_SUB
Message[305]: Using default destination of 1 (file).
019C   03??               M     DECF RES_SUB
Message[305]: Using default destination of 1 (file).
019D   0F??               M     INCFSZ RES_SUB
019E   2???               M     GOTO FINAL
019F   2???               M     GOTO TRUE_UNIDADE_0
                          M     ;PRINTANDO OS VALORES DO MILHAR
01A0                      M TRUE_UNIDADE_9:
01A0   2???               M     CALL PRINT_9
01A1   2???               M     GOTO FINAL
01A2                      M TRUE_UNIDADE_8:
01A2   2???               M     CALL PRINT_8
01A3   2???               M     GOTO FINAL
01A4                      M TRUE_UNIDADE_7:
01A4   2???               M     CALL PRINT_7
01A5   2???               M     GOTO FINAL
01A6                      M TRUE_UNIDADE_6:
01A6   2???               M     CALL PRINT_6
01A7   2???               M     GOTO FINAL
01A8                      M TRUE_UNIDADE_5:
01A8   2???               M     CALL PRINT_5
01A9   2???               M     GOTO FINAL
01AA                      M TRUE_UNIDADE_4:
01AA   2???               M     CALL PRINT_4
01AB   2???               M     GOTO FINAL
01AC                      M TRUE_UNIDADE_3:
01AC   2???               M     CALL PRINT_3
01AD   2???               M     GOTO FINAL
01AE                      M TRUE_UNIDADE_2:
01AE   2???               M     CALL PRINT_2
01AF   2???               M     GOTO FINAL
01B0                      M TRUE_UNIDADE_1:
01B0   2???               M     CALL PRINT_1
01B1   2???               M     GOTO FINAL
01B2                      M TRUE_UNIDADE_0:
01B2   2???               M     CALL PRINT_0
01B3   2???               M     GOTO FINAL
01B4                      M FINAL:
01B4   0008               M     RETURN
                          M     
                          M     
Warning[206]: Found call to macro in column 1. (ENABLE_KEYBOARD)
                      00044 ENABLE_KEYBOARD     
                          M  ;CONFIGURACAO DO TECLADO
Warning[207]: Found label after column 1. (CONFIG_KEYBOARD)
01B5                      M  CONFIG_KEYBOARD:
                          M     BANK1
01B5   1303               M  BCF STATUS, RP1;RP1:RP0
01B6   1683               M  BSF STATUS, RP0
Message[302]: Register in operand not in bank 0.  Ensure that bank bits are correct.
01B7   0186               M     CLRF TRISB
MPASM 5.87                          MAIN.ASM   6-7-2020  18:12:51         PAGE 41


LOC  OBJECT CODE     LINE SOURCE TEXT
  VALUE

01B8   300F               M     MOVLW B'00001111'
Message[302]: Register in operand not in bank 0.  Ensure that bank bits are correct.
01B9   0088               M     MOVWF TRISD
                          M     BANK0
01BA   1303               M  BCF STATUS, RP1;RP1:RP0
01BB   1283               M  BCF STATUS, RP0
01BC   3000               M     MOVLW B'00000000'
01BD   0086               M     MOVWF PORTB
01BE   0008               M     RETURN
Warning[206]: Found call to macro in column 1. (INPUT_KEYBOARD)
                      00045 INPUT_KEYBOARD INPUT_VAL           
Warning[207]: Found label after column 1. (INPUT_LOOP)
01BF                      M  INPUT_LOOP:
01BF   3000               M     MOVLW D'0'
01C0   00??               M     MOVWF INPUT_VAL
                          M        
Message[302]: Register in operand not in bank 0.  Ensure that bank bits are correct.
01C1   1C88               M     BTFSS TRISD, RD1
01C2   2???               M     GOTO MOV7           ; 7
01C3   2???               M     CALL DELAY_1MS
                          M 
Message[302]: Register in operand not in bank 0.  Ensure that bank bits are correct.
01C4   1D08               M     BTFSS TRISD, RD2
01C5   2???               M     GOTO MOV4           ; 4
01C6   2???               M     CALL DELAY_1MS
                          M 
Message[302]: Register in operand not in bank 0.  Ensure that bank bits are correct.
01C7   1D88               M     BTFSS TRISD, RD3
01C8   2???               M     GOTO MOV1           ;1
01C9   2???               M     CALL DELAY_1MS
01CA   1406               M     BSF PORTB, RB0
                          M     
                          M     ;;
01CB   1086               M     BCF PORTB, RB1
Message[302]: Register in operand not in bank 0.  Ensure that bank bits are correct.
01CC   1C08               M     BTFSS TRISD, RD0
01CD   2???               M     GOTO MOV0           ;0
01CE   2???               M     CALL DELAY_1MS
                          M         
Message[302]: Register in operand not in bank 0.  Ensure that bank bits are correct.
01CF   1C88               M     BTFSS TRISD, RD1
01D0   2???               M     GOTO MOV8           ;8
01D1   2???               M     CALL DELAY_1MS
                          M         
Message[302]: Register in operand not in bank 0.  Ensure that bank bits are correct.
01D2   1D08               M     BTFSS TRISD, RD2
01D3   2???               M     GOTO MOV5           ;5
01D4   2???               M     CALL DELAY_1MS
                          M         
Message[302]: Register in operand not in bank 0.  Ensure that bank bits are correct.
01D5   1D88               M     BTFSS TRISD, RD3
01D6   2???               M     GOTO MOV2           ;2
01D7   2???               M     CALL DELAY_1MS
MPASM 5.87                          MAIN.ASM   6-7-2020  18:12:51         PAGE 42


LOC  OBJECT CODE     LINE SOURCE TEXT
  VALUE

01D8   1486               M     BSF PORTB, RB1
                          M     
                          M     ;;
01D9   1106               M     BCF PORTB, RB2
                          M 
Message[302]: Register in operand not in bank 0.  Ensure that bank bits are correct.
01DA   1D88               M     BTFSS TRISD, RD3
01DB   2???               M     GOTO MOV3           ;3
01DC   2???               M     CALL DELAY_1MS
                          M         
Message[302]: Register in operand not in bank 0.  Ensure that bank bits are correct.
01DD   1D08               M     BTFSS TRISD, RD2
01DE   2???               M     GOTO MOV6           ;6
01DF   2???               M     CALL DELAY_1MS
                          M         
Message[302]: Register in operand not in bank 0.  Ensure that bank bits are correct.
01E0   1C88               M     BTFSS TRISD, RD1
01E1   2???               M     GOTO MOV9           ;9
01E2   2???               M     CALL DELAY_1MS
01E3   1506               M     BSF PORTB, RB2
                          M     ;;
                          M     
01E4   2???               M     GOTO INPUT_LOOP
                          M  
01E5                      M MOV0:
01E5   3000               M     MOVLW K0
01E6   00??               M     MOVWF INPUT_VAL
01E7   2???               M     GOTO INPUT_EXIT
01E8                      M MOV1:
01E8   3001               M     MOVLW K1
01E9   00??               M     MOVWF INPUT_VAL
01EA   2???               M     GOTO INPUT_EXIT
01EB                      M MOV2:
01EB   3002               M     MOVLW K2
01EC   00??               M     MOVWF INPUT_VAL
01ED   2???               M     GOTO INPUT_EXIT
01EE                      M MOV3:
01EE   3003               M     MOVLW K3
01EF   00??               M     MOVWF INPUT_VAL
01F0   2???               M     GOTO INPUT_EXIT    
01F1                      M MOV4:
01F1   3004               M     MOVLW K4
01F2   00??               M     MOVWF INPUT_VAL
01F3   2???               M     GOTO INPUT_EXIT
01F4                      M MOV5:
01F4   3005               M     MOVLW K5
01F5   00??               M     MOVWF INPUT_VAL
01F6   2???               M     GOTO INPUT_EXIT
01F7                      M MOV6:
01F7   3006               M     MOVLW K6
01F8   00??               M     MOVWF INPUT_VAL
01F9   2???               M     GOTO INPUT_EXIT    
01FA                      M MOV7:
MPASM 5.87                          MAIN.ASM   6-7-2020  18:12:51         PAGE 43


LOC  OBJECT CODE     LINE SOURCE TEXT
  VALUE

01FA   3007               M     MOVLW K7
01FB   00??               M     MOVWF INPUT_VAL
01FC   2???               M     GOTO INPUT_EXIT
01FD                      M MOV8:
01FD   3008               M     MOVLW K8
01FE   00??               M     MOVWF INPUT_VAL
01FF   2???               M     GOTO INPUT_EXIT    
0200                      M MOV9:
0200   3009               M     MOVLW K9
0201   00??               M     MOVWF INPUT_VAL
0202   2???               M     GOTO INPUT_EXIT 
                          M     
0203                      M INPUT_EXIT:
0203   2???               M     CALL DELAY_255
0204   2???               M     CALL DELAY_255
0205   0008               M     RETURN
                          M     
Warning[206]: Found call to macro in column 1. (OPERATIONS)
                      00046 OPERATIONS INPUT_U1,INPUT_D1,INPUT_U2,INPUT_D2       
                          M 
                          M ;OPERADOR DE SOMA 
0206                      M OPERATOR_SOMA:  
Warning[203]: Found opcode in column 1. (MOVF)
0206   08??               M MOVF INPUT_U1,W;UNIDADE DO VALOR 1
Warning[203]: Found opcode in column 1. (ADDWF)
0207   07??               M ADDWF INPUT_U2,W;UNIDADE DO VALOR 2
Warning[203]: Found opcode in column 1. (MOVWF)
0208   00??               M MOVWF UNIDADE    
0209                      M TESTA_UNIDADE:    
Warning[206]: Found call to macro in column 1. (CMP)
                          M CMP UNIDADE, D'10', U_CARRY_0,U_TESTA11
0209   08??               M     MOVF UNIDADE,0
020A   3C0A               M     SUBLW D'10'
020B   00??               M     MOVWF RES_SUB
Message[305]: Using default destination of 1 (file).
020C   03??               M     DECF RES_SUB
Message[305]: Using default destination of 1 (file).
020D   0F??               M     INCFSZ RES_SUB
020E   2???               M     GOTO U_TESTA11
020F   2???               M     GOTO U_CARRY_0
0210                      M U_TESTA11:
Warning[206]: Found call to macro in column 1. (CMP)
                          M CMP UNIDADE, D'11', U_CARRY_1,U_TESTA12
0210   08??               M     MOVF UNIDADE,0
0211   3C0B               M     SUBLW D'11'
0212   00??               M     MOVWF RES_SUB
Message[305]: Using default destination of 1 (file).
0213   03??               M     DECF RES_SUB
Message[305]: Using default destination of 1 (file).
0214   0F??               M     INCFSZ RES_SUB
0215   2???               M     GOTO U_TESTA12
0216   2???               M     GOTO U_CARRY_1
0217                      M U_TESTA12:
MPASM 5.87                          MAIN.ASM   6-7-2020  18:12:51         PAGE 44


LOC  OBJECT CODE     LINE SOURCE TEXT
  VALUE

Warning[206]: Found call to macro in column 1. (CMP)
                          M CMP UNIDADE, D'12', U_CARRY_2,U_TESTA13
0217   08??               M     MOVF UNIDADE,0
0218   3C0C               M     SUBLW D'12'
0219   00??               M     MOVWF RES_SUB
Message[305]: Using default destination of 1 (file).
021A   03??               M     DECF RES_SUB
Message[305]: Using default destination of 1 (file).
021B   0F??               M     INCFSZ RES_SUB
021C   2???               M     GOTO U_TESTA13
021D   2???               M     GOTO U_CARRY_2
021E                      M U_TESTA13:
Warning[206]: Found call to macro in column 1. (CMP)
                          M CMP UNIDADE, D'13', U_CARRY_3,U_TESTA14
021E   08??               M     MOVF UNIDADE,0
021F   3C0D               M     SUBLW D'13'
0220   00??               M     MOVWF RES_SUB
Message[305]: Using default destination of 1 (file).
0221   03??               M     DECF RES_SUB
Message[305]: Using default destination of 1 (file).
0222   0F??               M     INCFSZ RES_SUB
0223   2???               M     GOTO U_TESTA14
0224   2???               M     GOTO U_CARRY_3
0225                      M U_TESTA14:
Warning[206]: Found call to macro in column 1. (CMP)
                          M CMP UNIDADE, D'14', U_CARRY_4,U_TESTA15 
0225   08??               M     MOVF UNIDADE,0
0226   3C0E               M     SUBLW D'14'
0227   00??               M     MOVWF RES_SUB
Message[305]: Using default destination of 1 (file).
0228   03??               M     DECF RES_SUB
Message[305]: Using default destination of 1 (file).
0229   0F??               M     INCFSZ RES_SUB
022A   2???               M     GOTO U_TESTA15
022B   2???               M     GOTO U_CARRY_4
022C                      M U_TESTA15:
Warning[206]: Found call to macro in column 1. (CMP)
                          M CMP UNIDADE, D'15', U_CARRY_5,U_TESTA16
022C   08??               M     MOVF UNIDADE,0
022D   3C0F               M     SUBLW D'15'
022E   00??               M     MOVWF RES_SUB
Message[305]: Using default destination of 1 (file).
022F   03??               M     DECF RES_SUB
Message[305]: Using default destination of 1 (file).
0230   0F??               M     INCFSZ RES_SUB
0231   2???               M     GOTO U_TESTA16
0232   2???               M     GOTO U_CARRY_5
0233                      M U_TESTA16:
Warning[206]: Found call to macro in column 1. (CMP)
                          M CMP UNIDADE, D'16', U_CARRY_6,U_TESTA17 
0233   08??               M     MOVF UNIDADE,0
0234   3C10               M     SUBLW D'16'
0235   00??               M     MOVWF RES_SUB
MPASM 5.87                          MAIN.ASM   6-7-2020  18:12:51         PAGE 45


LOC  OBJECT CODE     LINE SOURCE TEXT
  VALUE

Message[305]: Using default destination of 1 (file).
0236   03??               M     DECF RES_SUB
Message[305]: Using default destination of 1 (file).
0237   0F??               M     INCFSZ RES_SUB
0238   2???               M     GOTO U_TESTA17
0239   2???               M     GOTO U_CARRY_6
023A                      M U_TESTA17:
Warning[206]: Found call to macro in column 1. (CMP)
                          M CMP UNIDADE, D'17', U_CARRY_7,U_TESTA18
023A   08??               M     MOVF UNIDADE,0
023B   3C11               M     SUBLW D'17'
023C   00??               M     MOVWF RES_SUB
Message[305]: Using default destination of 1 (file).
023D   03??               M     DECF RES_SUB
Message[305]: Using default destination of 1 (file).
023E   0F??               M     INCFSZ RES_SUB
023F   2???               M     GOTO U_TESTA18
0240   2???               M     GOTO U_CARRY_7
0241                      M U_TESTA18:
Warning[206]: Found call to macro in column 1. (CMP)
                          M CMP UNIDADE, D'18', U_CARRY_8, TESTA_DEZENA  
0241   08??               M     MOVF UNIDADE,0
0242   3C12               M     SUBLW D'18'
0243   00??               M     MOVWF RES_SUB
Message[305]: Using default destination of 1 (file).
0244   03??               M     DECF RES_SUB
Message[305]: Using default destination of 1 (file).
0245   0F??               M     INCFSZ RES_SUB
0246   2???               M     GOTO TESTA_DEZENA
0247   2???               M     GOTO U_CARRY_8
                          M 
0248                      M U_CARRY_0:
0248   3000               M     MOVLW D'0'
0249   00??               M     MOVWF UNIDADE
Message[305]: Using default destination of 1 (file).
024A   0A??               M     INCF DEZENA
024B   2???               M     GOTO TESTA_DEZENA
024C                      M U_CARRY_1:
024C   3001               M     MOVLW D'1'
024D   00??               M     MOVWF UNIDADE
Message[305]: Using default destination of 1 (file).
024E   0A??               M     INCF DEZENA
024F   2???               M     GOTO TESTA_DEZENA
0250                      M U_CARRY_2:
0250   3002               M     MOVLW D'2'
0251   00??               M     MOVWF UNIDADE
Message[305]: Using default destination of 1 (file).
0252   0A??               M     INCF DEZENA
0253   2???               M     GOTO TESTA_DEZENA
Warning[207]: Found label after column 1. (U_CARRY_3)
0254                      M  U_CARRY_3:
0254   3003               M     MOVLW D'3'
0255   00??               M     MOVWF UNIDADE
MPASM 5.87                          MAIN.ASM   6-7-2020  18:12:51         PAGE 46


LOC  OBJECT CODE     LINE SOURCE TEXT
  VALUE

Message[305]: Using default destination of 1 (file).
0256   0A??               M     INCF DEZENA
0257   2???               M     GOTO TESTA_DEZENA   
0258                      M U_CARRY_4:
0258   3004               M     MOVLW D'4'
0259   00??               M     MOVWF UNIDADE
Message[305]: Using default destination of 1 (file).
025A   0A??               M     INCF DEZENA
025B   2???               M     GOTO TESTA_DEZENA    
025C                      M U_CARRY_5:
025C   3005               M     MOVLW D'5'
025D   00??               M     MOVWF UNIDADE
Message[305]: Using default destination of 1 (file).
025E   0A??               M     INCF DEZENA
025F   2???               M     GOTO TESTA_DEZENA    
0260                      M U_CARRY_6:
0260   3006               M     MOVLW D'6'
0261   00??               M     MOVWF UNIDADE
Message[305]: Using default destination of 1 (file).
0262   0A??               M     INCF DEZENA
0263   2???               M     GOTO TESTA_DEZENA    
0264                      M U_CARRY_7:
0264   3007               M     MOVLW D'7'
0265   00??               M     MOVWF UNIDADE
Message[305]: Using default destination of 1 (file).
0266   0A??               M     INCF DEZENA
0267   2???               M     GOTO TESTA_DEZENA    
0268                      M U_CARRY_8:
0268   3008               M     MOVLW D'8'
0269   00??               M     MOVWF UNIDADE
Message[305]: Using default destination of 1 (file).
026A   0A??               M     INCF DEZENA
026B   2???               M     GOTO TESTA_DEZENA   
                          M      
026C                      M TESTA_DEZENA:    
Warning[203]: Found opcode in column 1. (MOVF)
026C   08??               M MOVF INPUT_D1,W
Warning[203]: Found opcode in column 1. (ADDWF)
026D   07??               M ADDWF INPUT_D2,W;DEZENA VALOR 1
Warning[203]: Found opcode in column 1. (ADDWF)
026E   07??               M ADDWF DEZENA, W    
Warning[203]: Found opcode in column 1. (MOVWF)
026F   00??               M MOVWF DEZENA    
Warning[206]: Found call to macro in column 1. (CMP)
                          M CMP DEZENA, D'10', D_CARRY_0,D_TESTA11
0270   08??               M     MOVF DEZENA,0
0271   3C0A               M     SUBLW D'10'
0272   00??               M     MOVWF RES_SUB
Message[305]: Using default destination of 1 (file).
0273   03??               M     DECF RES_SUB
Message[305]: Using default destination of 1 (file).
0274   0F??               M     INCFSZ RES_SUB
0275   2???               M     GOTO D_TESTA11
MPASM 5.87                          MAIN.ASM   6-7-2020  18:12:51         PAGE 47


LOC  OBJECT CODE     LINE SOURCE TEXT
  VALUE

0276   2???               M     GOTO D_CARRY_0
0277                      M D_TESTA11:
Warning[206]: Found call to macro in column 1. (CMP)
                          M CMP DEZENA, D'11', D_CARRY_1,D_TESTA12
0277   08??               M     MOVF DEZENA,0
0278   3C0B               M     SUBLW D'11'
0279   00??               M     MOVWF RES_SUB
Message[305]: Using default destination of 1 (file).
027A   03??               M     DECF RES_SUB
Message[305]: Using default destination of 1 (file).
027B   0F??               M     INCFSZ RES_SUB
027C   2???               M     GOTO D_TESTA12
027D   2???               M     GOTO D_CARRY_1
027E                      M D_TESTA12:
Warning[206]: Found call to macro in column 1. (CMP)
                          M CMP DEZENA, D'12', D_CARRY_2,D_TESTA13
027E   08??               M     MOVF DEZENA,0
027F   3C0C               M     SUBLW D'12'
0280   00??               M     MOVWF RES_SUB
Message[305]: Using default destination of 1 (file).
0281   03??               M     DECF RES_SUB
Message[305]: Using default destination of 1 (file).
0282   0F??               M     INCFSZ RES_SUB
0283   2???               M     GOTO D_TESTA13
0284   2???               M     GOTO D_CARRY_2
0285                      M D_TESTA13:
Warning[206]: Found call to macro in column 1. (CMP)
                          M CMP DEZENA, D'13', D_CARRY_3,D_TESTA14
0285   08??               M     MOVF DEZENA,0
0286   3C0D               M     SUBLW D'13'
0287   00??               M     MOVWF RES_SUB
Message[305]: Using default destination of 1 (file).
0288   03??               M     DECF RES_SUB
Message[305]: Using default destination of 1 (file).
0289   0F??               M     INCFSZ RES_SUB
028A   2???               M     GOTO D_TESTA14
028B   2???               M     GOTO D_CARRY_3
028C                      M D_TESTA14:
Warning[206]: Found call to macro in column 1. (CMP)
                          M CMP DEZENA, D'14', D_CARRY_4,D_TESTA15 
028C   08??               M     MOVF DEZENA,0
028D   3C0E               M     SUBLW D'14'
028E   00??               M     MOVWF RES_SUB
Message[305]: Using default destination of 1 (file).
028F   03??               M     DECF RES_SUB
Message[305]: Using default destination of 1 (file).
0290   0F??               M     INCFSZ RES_SUB
0291   2???               M     GOTO D_TESTA15
0292   2???               M     GOTO D_CARRY_4
0293                      M D_TESTA15:
Warning[206]: Found call to macro in column 1. (CMP)
                          M CMP DEZENA, D'15', D_CARRY_5,D_TESTA16
0293   08??               M     MOVF DEZENA,0
MPASM 5.87                          MAIN.ASM   6-7-2020  18:12:51         PAGE 48


LOC  OBJECT CODE     LINE SOURCE TEXT
  VALUE

0294   3C0F               M     SUBLW D'15'
0295   00??               M     MOVWF RES_SUB
Message[305]: Using default destination of 1 (file).
0296   03??               M     DECF RES_SUB
Message[305]: Using default destination of 1 (file).
0297   0F??               M     INCFSZ RES_SUB
0298   2???               M     GOTO D_TESTA16
0299   2???               M     GOTO D_CARRY_5
029A                      M D_TESTA16:
Warning[206]: Found call to macro in column 1. (CMP)
                          M CMP DEZENA, D'16', D_CARRY_6,D_TESTA17 
029A   08??               M     MOVF DEZENA,0
029B   3C10               M     SUBLW D'16'
029C   00??               M     MOVWF RES_SUB
Message[305]: Using default destination of 1 (file).
029D   03??               M     DECF RES_SUB
Message[305]: Using default destination of 1 (file).
029E   0F??               M     INCFSZ RES_SUB
029F   2???               M     GOTO D_TESTA17
02A0   2???               M     GOTO D_CARRY_6
02A1                      M D_TESTA17:
Warning[206]: Found call to macro in column 1. (CMP)
                          M CMP DEZENA, D'17', D_CARRY_7,D_TESTA18
02A1   08??               M     MOVF DEZENA,0
02A2   3C11               M     SUBLW D'17'
02A3   00??               M     MOVWF RES_SUB
Message[305]: Using default destination of 1 (file).
02A4   03??               M     DECF RES_SUB
Message[305]: Using default destination of 1 (file).
02A5   0F??               M     INCFSZ RES_SUB
02A6   2???               M     GOTO D_TESTA18
02A7   2???               M     GOTO D_CARRY_7
02A8                      M D_TESTA18:
Warning[206]: Found call to macro in column 1. (CMP)
                          M CMP DEZENA, D'18', D_CARRY_8, D_TESTA19
02A8   08??               M     MOVF DEZENA,0
02A9   3C12               M     SUBLW D'18'
02AA   00??               M     MOVWF RES_SUB
Message[305]: Using default destination of 1 (file).
02AB   03??               M     DECF RES_SUB
Message[305]: Using default destination of 1 (file).
02AC   0F??               M     INCFSZ RES_SUB
02AD   2???               M     GOTO D_TESTA19
02AE   2???               M     GOTO D_CARRY_8
02AF                      M D_TESTA19:
Warning[206]: Found call to macro in column 1. (CMP)
                          M CMP DEZENA, D'19', D_CARRY_9, SAIDA     
02AF   08??               M     MOVF DEZENA,0
02B0   3C13               M     SUBLW D'19'
02B1   00??               M     MOVWF RES_SUB
Message[305]: Using default destination of 1 (file).
02B2   03??               M     DECF RES_SUB
Message[305]: Using default destination of 1 (file).
MPASM 5.87                          MAIN.ASM   6-7-2020  18:12:51         PAGE 49


LOC  OBJECT CODE     LINE SOURCE TEXT
  VALUE

02B3   0F??               M     INCFSZ RES_SUB
02B4   2???               M     GOTO SAIDA
02B5   2???               M     GOTO D_CARRY_9
                          M 
02B6                      M D_CARRY_0:
02B6   3000               M     MOVLW D'0'
02B7   00??               M     MOVWF DEZENA
Message[305]: Using default destination of 1 (file).
02B8   0A??               M     INCF CENTENA
02B9   2???               M     GOTO SAIDA
02BA                      M D_CARRY_1:
02BA   3001               M     MOVLW D'1'
02BB   00??               M     MOVWF DEZENA
Message[305]: Using default destination of 1 (file).
02BC   0A??               M     INCF CENTENA
02BD   2???               M     GOTO SAIDA
02BE                      M D_CARRY_2:
02BE   3002               M     MOVLW D'2'
02BF   00??               M     MOVWF DEZENA
Message[305]: Using default destination of 1 (file).
02C0   0A??               M     INCF CENTENA
02C1   2???               M     GOTO SAIDA
02C2                      M D_CARRY_3:
02C2   3003               M     MOVLW D'3'
02C3   00??               M     MOVWF DEZENA
Message[305]: Using default destination of 1 (file).
02C4   0A??               M     INCF CENTENA
02C5   2???               M     GOTO SAIDA   
02C6                      M D_CARRY_4:
02C6   3004               M     MOVLW D'4'
02C7   00??               M     MOVWF DEZENA
Message[305]: Using default destination of 1 (file).
02C8   0A??               M     INCF CENTENA
02C9   2???               M     GOTO SAIDA    
02CA                      M D_CARRY_5:
02CA   3005               M     MOVLW D'5'
02CB   00??               M     MOVWF DEZENA
Message[305]: Using default destination of 1 (file).
02CC   0A??               M     INCF CENTENA
02CD   2???               M     GOTO SAIDA    
02CE                      M D_CARRY_6:
02CE   3006               M     MOVLW D'6'
02CF   00??               M     MOVWF DEZENA
Message[305]: Using default destination of 1 (file).
02D0   0A??               M     INCF CENTENA
02D1   2???               M     GOTO SAIDA    
02D2                      M D_CARRY_7:
02D2   3007               M     MOVLW D'7'
02D3   00??               M     MOVWF DEZENA
Message[305]: Using default destination of 1 (file).
02D4   0A??               M     INCF CENTENA
02D5   2???               M     GOTO SAIDA    
02D6                      M D_CARRY_8:
MPASM 5.87                          MAIN.ASM   6-7-2020  18:12:51         PAGE 50


LOC  OBJECT CODE     LINE SOURCE TEXT
  VALUE

02D6   3008               M     MOVLW D'8'
02D7   00??               M     MOVWF DEZENA
Message[305]: Using default destination of 1 (file).
02D8   0A??               M     INCF CENTENA
02D9   2???               M     GOTO SAIDA
02DA                      M D_CARRY_9:
02DA   3009               M     MOVLW D'9'
02DB   00??               M     MOVWF DEZENA
Message[305]: Using default destination of 1 (file).
02DC   0A??               M     INCF CENTENA
02DD   2???               M     GOTO SAIDA    
                          M 
02DE                      M SAIDA:    
Warning[203]: Found opcode in column 1. (RETURN)
02DE   0008               M RETURN 
                          M  
                          M ;OPERACAO DE SUBTRACAO    
02DF                      M OPERATOR_SUB:
02DF   08??               M    MOVF INPUT_U1 , W
02E0   3C00               M    SUBLW D'0'
02E1   1903               M    BTFSC STATUS, Z
02E2   2???               M    CALL REAJUST
02E3   08??               M    MOVF INPUT_U2,W
02E4   02??               M    SUBWF INPUT_U1,W
02E5   00??               M    MOVWF UNIDADE
02E6   08??               M    MOVF INPUT_D2,W
02E7   02??               M    SUBWF INPUT_D1,W
02E8   00??               M    MOVWF DEZENA
02E9   0008               M    RETURN
02EA                      M CASE_0:
02EA   08??               M    MOVF INPUT_U2,W
02EB   00??               M    MOVWF UNIDADE
02EC   08??               M    MOVF INPUT_D2,W
02ED   00??               M    MOVWF DEZENA
02EE   0008               M    RETURN
02EF                      M REAJUST:
02EF   08??               M    MOVF INPUT_D1 , W
02F0   3C00               M    SUBLW D'0'
02F1   1903               M    BTFSC STATUS, Z
02F2   2???               M    GOTO CASE_0
02F3   08??               M    MOVF INPUT_D1 , W
02F4   3C01               M    SUBLW D'1'
02F5   00??               M    MOVWF INPUT_D1
02F6   08??               M    MOVF INPUT_U1,W
02F7   3E0A               M    ADDLW D'10'
02F8   00??               M    MOVWF INPUT_U1
02F9   0008               M    RETURN
                          M    
                          M    
                          M    
                          M    
                          M    
                          M    
MPASM 5.87                          MAIN.ASM   6-7-2020  18:12:51         PAGE 51


LOC  OBJECT CODE     LINE SOURCE TEXT
  VALUE

                          M    
Warning[207]: Found label after column 1. (OPERATOR_MULTI)
02FA                      M    OPERATOR_MULTI:
                          M     ;TESTE UNIDADE COM UNIDADE
02FA   08??               M     MOVF INPUT_U1,W
Message[305]: Using default destination of 1 (file).
02FB   05??               M     ANDWF INPUT_U2
02FC   1903               M     BTFSC STATUS,Z
02FD   2???               M     CALL CASE_U1XU2
                          M     ;TESTE UNIDADE COM DEZENA 
02FE   08??               M     MOVF INPUT_U1,W
Message[305]: Using default destination of 1 (file).
02FF   05??               M     ANDWF INPUT_D2
0300   1903               M     BTFSC STATUS,Z
0301   2???               M     CALL CASE_U1XD2
                          M     ;TESTE DEZENA COM UNIDADE
0302   08??               M     MOVF INPUT_D1,W
Message[305]: Using default destination of 1 (file).
0303   05??               M     ANDWF INPUT_U2
0304   1903               M     BTFSC STATUS,Z
0305   2???               M     CALL CASE_D1XU2
                          M     ;TESTE DEZENDE COM DEZENA
0306   08??               M     MOVF INPUT_D1,W
Message[305]: Using default destination of 1 (file).
0307   05??               M     ANDWF INPUT_D2
0308   1903               M     BTFSC STATUS,Z
0309   2???               M     CALL CASE_D1XD2
                          M 
030A                      M CASE_U1XU2;PARA VALOR DA UNIDADE
030A   08??               M     MOVF INPUT_U2,W
030B   00??               M     MOVWF AUX_INPUTU
Warning[207]: Found label after column 1. (LOOP_UNIDADE)
030C                      M     LOOP_UNIDADE
030C   08??               M     MOVF INPUT_U1,W
030D   07??               M     ADDWF UNIDADE,W
030E   00??               M     MOVWF UNIDADE
                          M     ;TESTE UNIDADE + UNIDADE
030F                      M MTESTA_UNIDADE:    
Warning[206]: Found call to macro in column 1. (CMP)
                          M CMP UNIDADE, D'10', MU_CARRY_0,MU_TESTA11
030F   08??               M     MOVF UNIDADE,0
0310   3C0A               M     SUBLW D'10'
0311   00??               M     MOVWF RES_SUB
Message[305]: Using default destination of 1 (file).
0312   03??               M     DECF RES_SUB
Message[305]: Using default destination of 1 (file).
0313   0F??               M     INCFSZ RES_SUB
0314   2???               M     GOTO MU_TESTA11
0315   2???               M     GOTO MU_CARRY_0
0316                      M MU_TESTA11:
Warning[206]: Found call to macro in column 1. (CMP)
                          M CMP UNIDADE, D'11', MU_CARRY_1,MU_TESTA12
0316   08??               M     MOVF UNIDADE,0
MPASM 5.87                          MAIN.ASM   6-7-2020  18:12:51         PAGE 52


LOC  OBJECT CODE     LINE SOURCE TEXT
  VALUE

0317   3C0B               M     SUBLW D'11'
0318   00??               M     MOVWF RES_SUB
Message[305]: Using default destination of 1 (file).
0319   03??               M     DECF RES_SUB
Message[305]: Using default destination of 1 (file).
031A   0F??               M     INCFSZ RES_SUB
031B   2???               M     GOTO MU_TESTA12
031C   2???               M     GOTO MU_CARRY_1
031D                      M MU_TESTA12:
Warning[206]: Found call to macro in column 1. (CMP)
                          M CMP UNIDADE, D'12', MU_CARRY_2,MU_TESTA13
031D   08??               M     MOVF UNIDADE,0
031E   3C0C               M     SUBLW D'12'
031F   00??               M     MOVWF RES_SUB
Message[305]: Using default destination of 1 (file).
0320   03??               M     DECF RES_SUB
Message[305]: Using default destination of 1 (file).
0321   0F??               M     INCFSZ RES_SUB
0322   2???               M     GOTO MU_TESTA13
0323   2???               M     GOTO MU_CARRY_2
0324                      M MU_TESTA13:
Warning[206]: Found call to macro in column 1. (CMP)
                          M CMP UNIDADE, D'13', MU_CARRY_3,MU_TESTA14
0324   08??               M     MOVF UNIDADE,0
0325   3C0D               M     SUBLW D'13'
0326   00??               M     MOVWF RES_SUB
Message[305]: Using default destination of 1 (file).
0327   03??               M     DECF RES_SUB
Message[305]: Using default destination of 1 (file).
0328   0F??               M     INCFSZ RES_SUB
0329   2???               M     GOTO MU_TESTA14
032A   2???               M     GOTO MU_CARRY_3
032B                      M MU_TESTA14:
Warning[206]: Found call to macro in column 1. (CMP)
                          M CMP UNIDADE, D'14', MU_CARRY_4,MU_TESTA15 
032B   08??               M     MOVF UNIDADE,0
032C   3C0E               M     SUBLW D'14'
032D   00??               M     MOVWF RES_SUB
Message[305]: Using default destination of 1 (file).
032E   03??               M     DECF RES_SUB
Message[305]: Using default destination of 1 (file).
032F   0F??               M     INCFSZ RES_SUB
0330   2???               M     GOTO MU_TESTA15
0331   2???               M     GOTO MU_CARRY_4
0332                      M MU_TESTA15:
Warning[206]: Found call to macro in column 1. (CMP)
                          M CMP UNIDADE, D'15', MU_CARRY_5,MU_TESTA16
0332   08??               M     MOVF UNIDADE,0
0333   3C0F               M     SUBLW D'15'
0334   00??               M     MOVWF RES_SUB
Message[305]: Using default destination of 1 (file).
0335   03??               M     DECF RES_SUB
Message[305]: Using default destination of 1 (file).
MPASM 5.87                          MAIN.ASM   6-7-2020  18:12:51         PAGE 53


LOC  OBJECT CODE     LINE SOURCE TEXT
  VALUE

0336   0F??               M     INCFSZ RES_SUB
0337   2???               M     GOTO MU_TESTA16
0338   2???               M     GOTO MU_CARRY_5
0339                      M MU_TESTA16:
Warning[206]: Found call to macro in column 1. (CMP)
                          M CMP UNIDADE, D'16', MU_CARRY_6,MU_TESTA17 
0339   08??               M     MOVF UNIDADE,0
033A   3C10               M     SUBLW D'16'
033B   00??               M     MOVWF RES_SUB
Message[305]: Using default destination of 1 (file).
033C   03??               M     DECF RES_SUB
Message[305]: Using default destination of 1 (file).
033D   0F??               M     INCFSZ RES_SUB
033E   2???               M     GOTO MU_TESTA17
033F   2???               M     GOTO MU_CARRY_6
0340                      M MU_TESTA17:
Warning[206]: Found call to macro in column 1. (CMP)
                          M CMP UNIDADE, D'17', MU_CARRY_7,MU_TESTA18
0340   08??               M     MOVF UNIDADE,0
0341   3C11               M     SUBLW D'17'
0342   00??               M     MOVWF RES_SUB
Message[305]: Using default destination of 1 (file).
0343   03??               M     DECF RES_SUB
Message[305]: Using default destination of 1 (file).
0344   0F??               M     INCFSZ RES_SUB
0345   2???               M     GOTO MU_TESTA18
0346   2???               M     GOTO MU_CARRY_7
0347                      M MU_TESTA18:
Warning[206]: Found call to macro in column 1. (CMP)
                          M CMP UNIDADE, D'18', MU_CARRY_8, FIM_TESTE_UNIDADE  
0347   08??               M     MOVF UNIDADE,0
0348   3C12               M     SUBLW D'18'
0349   00??               M     MOVWF RES_SUB
Message[305]: Using default destination of 1 (file).
034A   03??               M     DECF RES_SUB
Message[305]: Using default destination of 1 (file).
034B   0F??               M     INCFSZ RES_SUB
034C   2???               M     GOTO FIM_TESTE_UNIDADE
034D   2???               M     GOTO MU_CARRY_8
                          M 
034E                      M MU_CARRY_0:
034E   3000               M     MOVLW D'0'
034F   00??               M     MOVWF UNIDADE
Message[305]: Using default destination of 1 (file).
0350   0A??               M     INCF DEZENA
0351   2???               M     GOTO FIM_TESTE_UNIDADE
0352                      M MU_CARRY_1:
0352   3001               M     MOVLW D'1'
0353   00??               M     MOVWF UNIDADE
Message[305]: Using default destination of 1 (file).
0354   0A??               M     INCF DEZENA
0355   2???               M     GOTO FIM_TESTE_UNIDADE
0356                      M MU_CARRY_2:
MPASM 5.87                          MAIN.ASM   6-7-2020  18:12:51         PAGE 54


LOC  OBJECT CODE     LINE SOURCE TEXT
  VALUE

0356   3002               M     MOVLW D'2'
0357   00??               M     MOVWF UNIDADE
Message[305]: Using default destination of 1 (file).
0358   0A??               M     INCF DEZENA
0359   2???               M     GOTO FIM_TESTE_UNIDADE
035A                      M MU_CARRY_3:
035A   3003               M     MOVLW D'3'
035B   00??               M     MOVWF UNIDADE
Message[305]: Using default destination of 1 (file).
035C   0A??               M     INCF DEZENA
035D   2???               M     GOTO FIM_TESTE_UNIDADE   
035E                      M MU_CARRY_4:
035E   3004               M     MOVLW D'4'
035F   00??               M     MOVWF UNIDADE
Message[305]: Using default destination of 1 (file).
0360   0A??               M     INCF DEZENA
0361   2???               M     GOTO FIM_TESTE_UNIDADE    
0362                      M MU_CARRY_5:
0362   3005               M     MOVLW D'5'
0363   00??               M     MOVWF UNIDADE
Message[305]: Using default destination of 1 (file).
0364   0A??               M     INCF DEZENA
0365   2???               M     GOTO FIM_TESTE_UNIDADE    
0366                      M MU_CARRY_6:
0366   3006               M     MOVLW D'6'
0367   00??               M     MOVWF UNIDADE
Message[305]: Using default destination of 1 (file).
0368   0A??               M     INCF DEZENA
0369   2???               M     GOTO FIM_TESTE_UNIDADE    
036A                      M MU_CARRY_7:
036A   3007               M     MOVLW D'7'
036B   00??               M     MOVWF UNIDADE
Message[305]: Using default destination of 1 (file).
036C   0A??               M     INCF DEZENA
036D   2???               M     GOTO FIM_TESTE_UNIDADE    
036E                      M MU_CARRY_8:
036E   3008               M     MOVLW D'8'
036F   00??               M     MOVWF UNIDADE
Message[305]: Using default destination of 1 (file).
0370   0A??               M     INCF DEZENA
0371   2???               M     GOTO FIM_TESTE_UNIDADE 
                          M     
0372                      M FIM_TESTE_UNIDADE:
Message[305]: Using default destination of 1 (file).
0372   03??               M     DECF AUX_INPUTU
0373   1903               M     BTFSC STATUS,Z
0374   2???               M     GOTO LOOP_UNIDADE
0375   0008               M     RETURN
0376                      M CASE_U1XD2
0376   08??               M     MOVF INPUT_D2,W
0377   00??               M     MOVWF AUX_INPUTD
Warning[207]: Found label after column 1. (LOOP_DEZENA_P2)
0378                      M     LOOP_DEZENA_P2
MPASM 5.87                          MAIN.ASM   6-7-2020  18:12:51         PAGE 55


LOC  OBJECT CODE     LINE SOURCE TEXT
  VALUE

0378   08??               M     MOVF INPUT_U1,W
0379   07??               M     ADDWF DEZENA,W
037A   00??               M     MOVWF DEZENA
                          M     ;TESTADOR SE PASSOU DE 10 CENTENA
037B                      M MTESTA_DEZENA:    
Warning[206]: Found call to macro in column 1. (CMP)
                          M CMP DEZENA, D'10', MD1_CARRY_0,MD1_TESTA11
037B   08??               M     MOVF DEZENA,0
037C   3C0A               M     SUBLW D'10'
037D   00??               M     MOVWF RES_SUB
Message[305]: Using default destination of 1 (file).
037E   03??               M     DECF RES_SUB
Message[305]: Using default destination of 1 (file).
037F   0F??               M     INCFSZ RES_SUB
0380   2???               M     GOTO MD1_TESTA11
0381   2???               M     GOTO MD1_CARRY_0
0382                      M MD1_TESTA11:
Warning[206]: Found call to macro in column 1. (CMP)
                          M CMP DEZENA, D'11', MD1_CARRY_1,MD1_TESTA12
0382   08??               M     MOVF DEZENA,0
0383   3C0B               M     SUBLW D'11'
0384   00??               M     MOVWF RES_SUB
Message[305]: Using default destination of 1 (file).
0385   03??               M     DECF RES_SUB
Message[305]: Using default destination of 1 (file).
0386   0F??               M     INCFSZ RES_SUB
0387   2???               M     GOTO MD1_TESTA12
0388   2???               M     GOTO MD1_CARRY_1
0389                      M MD1_TESTA12:
Warning[206]: Found call to macro in column 1. (CMP)
                          M CMP DEZENA, D'12', MD1_CARRY_2,MD1_TESTA13
0389   08??               M     MOVF DEZENA,0
038A   3C0C               M     SUBLW D'12'
038B   00??               M     MOVWF RES_SUB
Message[305]: Using default destination of 1 (file).
038C   03??               M     DECF RES_SUB
Message[305]: Using default destination of 1 (file).
038D   0F??               M     INCFSZ RES_SUB
038E   2???               M     GOTO MD1_TESTA13
038F   2???               M     GOTO MD1_CARRY_2
0390                      M MD1_TESTA13:
Warning[206]: Found call to macro in column 1. (CMP)
                          M CMP DEZENA, D'13', MD1_CARRY_3,MD1_TESTA14
0390   08??               M     MOVF DEZENA,0
0391   3C0D               M     SUBLW D'13'
0392   00??               M     MOVWF RES_SUB
Message[305]: Using default destination of 1 (file).
0393   03??               M     DECF RES_SUB
Message[305]: Using default destination of 1 (file).
0394   0F??               M     INCFSZ RES_SUB
0395   2???               M     GOTO MD1_TESTA14
0396   2???               M     GOTO MD1_CARRY_3
0397                      M MD1_TESTA14:
MPASM 5.87                          MAIN.ASM   6-7-2020  18:12:51         PAGE 56


LOC  OBJECT CODE     LINE SOURCE TEXT
  VALUE

Warning[206]: Found call to macro in column 1. (CMP)
                          M CMP DEZENA, D'14', MD1_CARRY_4,MD1_TESTA15 
0397   08??               M     MOVF DEZENA,0
0398   3C0E               M     SUBLW D'14'
0399   00??               M     MOVWF RES_SUB
Message[305]: Using default destination of 1 (file).
039A   03??               M     DECF RES_SUB
Message[305]: Using default destination of 1 (file).
039B   0F??               M     INCFSZ RES_SUB
039C   2???               M     GOTO MD1_TESTA15
039D   2???               M     GOTO MD1_CARRY_4
039E                      M MD1_TESTA15:
Warning[206]: Found call to macro in column 1. (CMP)
                          M CMP DEZENA, D'15', MD1_CARRY_5,MD1_TESTA16
039E   08??               M     MOVF DEZENA,0
039F   3C0F               M     SUBLW D'15'
03A0   00??               M     MOVWF RES_SUB
Message[305]: Using default destination of 1 (file).
03A1   03??               M     DECF RES_SUB
Message[305]: Using default destination of 1 (file).
03A2   0F??               M     INCFSZ RES_SUB
03A3   2???               M     GOTO MD1_TESTA16
03A4   2???               M     GOTO MD1_CARRY_5
03A5                      M MD1_TESTA16:
Warning[206]: Found call to macro in column 1. (CMP)
                          M CMP DEZENA, D'16', MD1_CARRY_6,MD1_TESTA17 
03A5   08??               M     MOVF DEZENA,0
03A6   3C10               M     SUBLW D'16'
03A7   00??               M     MOVWF RES_SUB
Message[305]: Using default destination of 1 (file).
03A8   03??               M     DECF RES_SUB
Message[305]: Using default destination of 1 (file).
03A9   0F??               M     INCFSZ RES_SUB
03AA   2???               M     GOTO MD1_TESTA17
03AB   2???               M     GOTO MD1_CARRY_6
03AC                      M MD1_TESTA17:
Warning[206]: Found call to macro in column 1. (CMP)
                          M CMP DEZENA, D'17', MD1_CARRY_7,MD1_TESTA18
03AC   08??               M     MOVF DEZENA,0
03AD   3C11               M     SUBLW D'17'
03AE   00??               M     MOVWF RES_SUB
Message[305]: Using default destination of 1 (file).
03AF   03??               M     DECF RES_SUB
Message[305]: Using default destination of 1 (file).
03B0   0F??               M     INCFSZ RES_SUB
03B1   2???               M     GOTO MD1_TESTA18
03B2   2???               M     GOTO MD1_CARRY_7
03B3                      M MD1_TESTA18:
Warning[206]: Found call to macro in column 1. (CMP)
                          M CMP DEZENA, D'18', MD1_CARRY_8, MD1_TESTA19
03B3   08??               M     MOVF DEZENA,0
03B4   3C12               M     SUBLW D'18'
03B5   00??               M     MOVWF RES_SUB
MPASM 5.87                          MAIN.ASM   6-7-2020  18:12:51         PAGE 57


LOC  OBJECT CODE     LINE SOURCE TEXT
  VALUE

Message[305]: Using default destination of 1 (file).
03B6   03??               M     DECF RES_SUB
Message[305]: Using default destination of 1 (file).
03B7   0F??               M     INCFSZ RES_SUB
03B8   2???               M     GOTO MD1_TESTA19
03B9   2???               M     GOTO MD1_CARRY_8
03BA                      M MD1_TESTA19:
Warning[206]: Found call to macro in column 1. (CMP)
                          M CMP DEZENA, D'19', MD1_CARRY_9, FIM_TESTE_DEZENA_1
03BA   08??               M     MOVF DEZENA,0
03BB   3C13               M     SUBLW D'19'
03BC   00??               M     MOVWF RES_SUB
Message[305]: Using default destination of 1 (file).
03BD   03??               M     DECF RES_SUB
Message[305]: Using default destination of 1 (file).
03BE   0F??               M     INCFSZ RES_SUB
03BF   2???               M     GOTO FIM_TESTE_DEZENA_1
03C0   2???               M     GOTO MD1_CARRY_9
                          M     
03C1                      M MD1_CARRY_0:
03C1   3000               M     MOVLW D'0'
03C2   00??               M     MOVWF DEZENA
Message[305]: Using default destination of 1 (file).
03C3   0A??               M     INCF CENTENA
03C4   2???               M     GOTO FIM_TESTE_DEZENA_1
03C5                      M MD1_CARRY_1:
03C5   3001               M     MOVLW D'1'
03C6   00??               M     MOVWF DEZENA
Message[305]: Using default destination of 1 (file).
03C7   0A??               M     INCF CENTENA
03C8   2???               M     GOTO FIM_TESTE_DEZENA_1
03C9                      M MD1_CARRY_2:
03C9   3002               M     MOVLW D'2'
03CA   00??               M     MOVWF DEZENA
Message[305]: Using default destination of 1 (file).
03CB   0A??               M     INCF CENTENA
03CC   2???               M     GOTO FIM_TESTE_DEZENA_1
03CD                      M MD1_CARRY_3:
03CD   3003               M     MOVLW D'3'
03CE   00??               M     MOVWF DEZENA
Message[305]: Using default destination of 1 (file).
03CF   0A??               M     INCF CENTENA
03D0   2???               M     GOTO FIM_TESTE_DEZENA_1   
03D1                      M MD1_CARRY_4:
03D1   3004               M     MOVLW D'4'
03D2   00??               M     MOVWF DEZENA
Message[305]: Using default destination of 1 (file).
03D3   0A??               M     INCF CENTENA
03D4   2???               M     GOTO FIM_TESTE_DEZENA_1    
03D5                      M MD1_CARRY_5:
03D5   3005               M     MOVLW D'5'
03D6   00??               M     MOVWF DEZENA
Message[305]: Using default destination of 1 (file).
MPASM 5.87                          MAIN.ASM   6-7-2020  18:12:51         PAGE 58


LOC  OBJECT CODE     LINE SOURCE TEXT
  VALUE

03D7   0A??               M     INCF CENTENA
03D8   2???               M     GOTO FIM_TESTE_DEZENA_1    
03D9                      M MD1_CARRY_6:
03D9   3006               M     MOVLW D'6'
03DA   00??               M     MOVWF DEZENA
Message[305]: Using default destination of 1 (file).
03DB   0A??               M     INCF CENTENA
03DC   2???               M     GOTO FIM_TESTE_DEZENA_1    
03DD                      M MD1_CARRY_7:
03DD   3007               M     MOVLW D'7'
03DE   00??               M     MOVWF DEZENA
Message[305]: Using default destination of 1 (file).
03DF   0A??               M     INCF CENTENA
03E0   2???               M     GOTO FIM_TESTE_DEZENA_1    
03E1                      M MD1_CARRY_8:
03E1   3008               M     MOVLW D'8'
03E2   00??               M     MOVWF DEZENA
Message[305]: Using default destination of 1 (file).
03E3   0A??               M     INCF CENTENA
03E4   2???               M     GOTO FIM_TESTE_DEZENA_1 
03E5                      M MD1_CARRY_9:
03E5   3009               M     MOVLW D'9'
03E6   00??               M     MOVWF DEZENA
Message[305]: Using default destination of 1 (file).
03E7   0A??               M     INCF CENTENA
03E8   2???               M     GOTO FIM_TESTE_DEZENA_1     
                          M     
                          M     
03E9                      M FIM_TESTE_DEZENA_1: 
Message[305]: Using default destination of 1 (file).
03E9   03??               M     DECF AUX_INPUTD
03EA   1903               M     BTFSC STATUS,Z
03EB   2???               M     GOTO LOOP_DEZENA_P1
03EC   0008               M     RETURN
03ED                      M CASE_D1XU2 ;PARA VALOR DA DEZENA
03ED   08??               M     MOVF INPUT_U2,W
03EE   00??               M     MOVWF AUX_INPUTU
Warning[207]: Found label after column 1. (LOOP_DEZENA_P1)
03EF                      M     LOOP_DEZENA_P1
03EF   08??               M     MOVF INPUT_D1,W
03F0   07??               M     ADDWF DEZENA,W
03F1   00??               M     MOVWF DEZENA
                          M     ;TESTADOR SE PASSOU DE 10 CENTENA
                          M         ;TESTADOR SE PASSOU DE 10 CENTENA
03F2                      M MTESTA_DEZENA_2:    
Warning[206]: Found call to macro in column 1. (CMP)
                          M CMP DEZENA, D'10', MD2_CARRY_0,MD2_TESTA11
03F2   08??               M     MOVF DEZENA,0
03F3   3C0A               M     SUBLW D'10'
03F4   00??               M     MOVWF RES_SUB
Message[305]: Using default destination of 1 (file).
03F5   03??               M     DECF RES_SUB
Message[305]: Using default destination of 1 (file).
MPASM 5.87                          MAIN.ASM   6-7-2020  18:12:51         PAGE 59


LOC  OBJECT CODE     LINE SOURCE TEXT
  VALUE

03F6   0F??               M     INCFSZ RES_SUB
03F7   2???               M     GOTO MD2_TESTA11
03F8   2???               M     GOTO MD2_CARRY_0
03F9                      M MD2_TESTA11:
Warning[206]: Found call to macro in column 1. (CMP)
                          M CMP DEZENA, D'11', MD2_CARRY_1,MD2_TESTA12
03F9   08??               M     MOVF DEZENA,0
03FA   3C0B               M     SUBLW D'11'
03FB   00??               M     MOVWF RES_SUB
Message[305]: Using default destination of 1 (file).
03FC   03??               M     DECF RES_SUB
Message[305]: Using default destination of 1 (file).
03FD   0F??               M     INCFSZ RES_SUB
03FE   2???               M     GOTO MD2_TESTA12
03FF   2???               M     GOTO MD2_CARRY_1
0400                      M MD2_TESTA12:
Warning[206]: Found call to macro in column 1. (CMP)
                          M CMP DEZENA, D'12', MD2_CARRY_2,MD2_TESTA13
0400   08??               M     MOVF DEZENA,0
0401   3C0C               M     SUBLW D'12'
0402   00??               M     MOVWF RES_SUB
Message[305]: Using default destination of 1 (file).
0403   03??               M     DECF RES_SUB
Message[305]: Using default destination of 1 (file).
0404   0F??               M     INCFSZ RES_SUB
0405   2???               M     GOTO MD2_TESTA13
0406   2???               M     GOTO MD2_CARRY_2
0407                      M MD2_TESTA13:
Warning[206]: Found call to macro in column 1. (CMP)
                          M CMP DEZENA, D'13', MD2_CARRY_3,MD2_TESTA14
0407   08??               M     MOVF DEZENA,0
0408   3C0D               M     SUBLW D'13'
0409   00??               M     MOVWF RES_SUB
Message[305]: Using default destination of 1 (file).
040A   03??               M     DECF RES_SUB
Message[305]: Using default destination of 1 (file).
040B   0F??               M     INCFSZ RES_SUB
040C   2???               M     GOTO MD2_TESTA14
040D   2???               M     GOTO MD2_CARRY_3
040E                      M MD2_TESTA14:
Warning[206]: Found call to macro in column 1. (CMP)
                          M CMP DEZENA, D'14', MD2_CARRY_4,MD2_TESTA15 
040E   08??               M     MOVF DEZENA,0
040F   3C0E               M     SUBLW D'14'
0410   00??               M     MOVWF RES_SUB
Message[305]: Using default destination of 1 (file).
0411   03??               M     DECF RES_SUB
Message[305]: Using default destination of 1 (file).
0412   0F??               M     INCFSZ RES_SUB
0413   2???               M     GOTO MD2_TESTA15
0414   2???               M     GOTO MD2_CARRY_4
0415                      M MD2_TESTA15:
Warning[206]: Found call to macro in column 1. (CMP)
MPASM 5.87                          MAIN.ASM   6-7-2020  18:12:51         PAGE 60


LOC  OBJECT CODE     LINE SOURCE TEXT
  VALUE

                          M CMP DEZENA, D'15', MD2_CARRY_5,MD2_TESTA16
0415   08??               M     MOVF DEZENA,0
0416   3C0F               M     SUBLW D'15'
0417   00??               M     MOVWF RES_SUB
Message[305]: Using default destination of 1 (file).
0418   03??               M     DECF RES_SUB
Message[305]: Using default destination of 1 (file).
0419   0F??               M     INCFSZ RES_SUB
041A   2???               M     GOTO MD2_TESTA16
041B   2???               M     GOTO MD2_CARRY_5
041C                      M MD2_TESTA16:
Warning[206]: Found call to macro in column 1. (CMP)
                          M CMP DEZENA, D'16', MD2_CARRY_6,MD2_TESTA17 
041C   08??               M     MOVF DEZENA,0
041D   3C10               M     SUBLW D'16'
041E   00??               M     MOVWF RES_SUB
Message[305]: Using default destination of 1 (file).
041F   03??               M     DECF RES_SUB
Message[305]: Using default destination of 1 (file).
0420   0F??               M     INCFSZ RES_SUB
0421   2???               M     GOTO MD2_TESTA17
0422   2???               M     GOTO MD2_CARRY_6
0423                      M MD2_TESTA17:
Warning[206]: Found call to macro in column 1. (CMP)
                          M CMP DEZENA, D'17', MD2_CARRY_7,MD2_TESTA18
0423   08??               M     MOVF DEZENA,0
0424   3C11               M     SUBLW D'17'
0425   00??               M     MOVWF RES_SUB
Message[305]: Using default destination of 1 (file).
0426   03??               M     DECF RES_SUB
Message[305]: Using default destination of 1 (file).
0427   0F??               M     INCFSZ RES_SUB
0428   2???               M     GOTO MD2_TESTA18
0429   2???               M     GOTO MD2_CARRY_7
042A                      M MD2_TESTA18:
Warning[206]: Found call to macro in column 1. (CMP)
                          M CMP DEZENA, D'18', MD2_CARRY_8, MD2_TESTA19  
042A   08??               M     MOVF DEZENA,0
042B   3C12               M     SUBLW D'18'
042C   00??               M     MOVWF RES_SUB
Message[305]: Using default destination of 1 (file).
042D   03??               M     DECF RES_SUB
Message[305]: Using default destination of 1 (file).
042E   0F??               M     INCFSZ RES_SUB
042F   2???               M     GOTO MD2_TESTA19
0430   2???               M     GOTO MD2_CARRY_8
0431                      M MD2_TESTA19:
Warning[206]: Found call to macro in column 1. (CMP)
                          M CMP DEZENA, D'19', MD2_CARRY_9, FIM_TESTE_DEZENA_2 
0431   08??               M     MOVF DEZENA,0
0432   3C13               M     SUBLW D'19'
0433   00??               M     MOVWF RES_SUB
Message[305]: Using default destination of 1 (file).
MPASM 5.87                          MAIN.ASM   6-7-2020  18:12:51         PAGE 61


LOC  OBJECT CODE     LINE SOURCE TEXT
  VALUE

0434   03??               M     DECF RES_SUB
Message[305]: Using default destination of 1 (file).
0435   0F??               M     INCFSZ RES_SUB
0436   2???               M     GOTO FIM_TESTE_DEZENA_2
0437   2???               M     GOTO MD2_CARRY_9
                          M     
0438                      M MD2_CARRY_0:
0438   3000               M     MOVLW D'0'
0439   00??               M     MOVWF DEZENA
Message[305]: Using default destination of 1 (file).
043A   0A??               M     INCF CENTENA
043B   2???               M     GOTO FIM_TESTE_DEZENA_2
043C                      M MD2_CARRY_1:
043C   3001               M     MOVLW D'1'
043D   00??               M     MOVWF DEZENA
Message[305]: Using default destination of 1 (file).
043E   0A??               M     INCF CENTENA
043F   2???               M     GOTO FIM_TESTE_DEZENA_2
0440                      M MD2_CARRY_2:
0440   3002               M     MOVLW D'2'
0441   00??               M     MOVWF DEZENA
Message[305]: Using default destination of 1 (file).
0442   0A??               M     INCF CENTENA
0443   2???               M     GOTO FIM_TESTE_DEZENA_2
0444                      M MD2_CARRY_3:
0444   3003               M     MOVLW D'3'
0445   00??               M     MOVWF DEZENA
Message[305]: Using default destination of 1 (file).
0446   0A??               M     INCF CENTENA
0447   2???               M     GOTO FIM_TESTE_DEZENA_2   
0448                      M MD2_CARRY_4:
0448   3004               M     MOVLW D'4'
0449   00??               M     MOVWF DEZENA
Message[305]: Using default destination of 1 (file).
044A   0A??               M     INCF CENTENA
044B   2???               M     GOTO FIM_TESTE_DEZENA_2    
044C                      M MD2_CARRY_5:
044C   3005               M     MOVLW D'5'
044D   00??               M     MOVWF DEZENA
Message[305]: Using default destination of 1 (file).
044E   0A??               M     INCF CENTENA
044F   2???               M     GOTO FIM_TESTE_DEZENA_2    
0450                      M MD2_CARRY_6:
0450   3006               M     MOVLW D'6'
0451   00??               M     MOVWF DEZENA
Message[305]: Using default destination of 1 (file).
0452   0A??               M     INCF CENTENA
0453   2???               M     GOTO FIM_TESTE_DEZENA_2    
0454                      M MD2_CARRY_7:
0454   3007               M     MOVLW D'7'
0455   00??               M     MOVWF DEZENA
Message[305]: Using default destination of 1 (file).
0456   0A??               M     INCF CENTENA
MPASM 5.87                          MAIN.ASM   6-7-2020  18:12:51         PAGE 62


LOC  OBJECT CODE     LINE SOURCE TEXT
  VALUE

0457   2???               M     GOTO FIM_TESTE_DEZENA_2    
0458                      M MD2_CARRY_8:
0458   3008               M     MOVLW D'8'
0459   00??               M     MOVWF DEZENA
Message[305]: Using default destination of 1 (file).
045A   0A??               M     INCF CENTENA
045B   2???               M     GOTO FIM_TESTE_DEZENA_2 
045C                      M MD2_CARRY_9:
045C   3009               M     MOVLW D'9'
045D   00??               M     MOVWF DEZENA
Message[305]: Using default destination of 1 (file).
045E   0A??               M     INCF CENTENA
045F   2???               M     GOTO FIM_TESTE_DEZENA_2     
                          M     
                          M     
0460                      M FIM_TESTE_DEZENA_2: 
Message[305]: Using default destination of 1 (file).
0460   03??               M     DECF AUX_INPUTU
0461   1903               M     BTFSC STATUS,Z
0462   2???               M     GOTO LOOP_DEZENA_P1
0463   0008               M     RETURN
0464                      M CASE_D1XD2 ;VALOR DE CENTENA
0464   08??               M     MOVF INPUT_D2,W
0465   00??               M     MOVWF AUX_INPUTD
Warning[207]: Found label after column 1. (LOOP_CENTENA)
0466                      M     LOOP_CENTENA
0466   08??               M     MOVF INPUT_D1,W
0467   07??               M     ADDWF CENTENA,W
0468   00??               M     MOVWF CENTENA
                          M     ;TESTADOR SE PASSOU DE 10 MILHAR
                          M     
Warning[207]: Found label after column 1. (MTESTA_CENTENA)
0469                      M     MTESTA_CENTENA:    
Warning[206]: Found call to macro in column 1. (CMP)
                          M CMP CENTENA, D'10', MC_CARRY_0,MC_TESTA11
0469   08??               M     MOVF CENTENA,0
046A   3C0A               M     SUBLW D'10'
046B   00??               M     MOVWF RES_SUB
Message[305]: Using default destination of 1 (file).
046C   03??               M     DECF RES_SUB
Message[305]: Using default destination of 1 (file).
046D   0F??               M     INCFSZ RES_SUB
046E   2???               M     GOTO MC_TESTA11
046F   2???               M     GOTO MC_CARRY_0
0470                      M MC_TESTA11:
Warning[206]: Found call to macro in column 1. (CMP)
                          M CMP CENTENA, D'11', MC_CARRY_1,MC_TESTA12
0470   08??               M     MOVF CENTENA,0
0471   3C0B               M     SUBLW D'11'
0472   00??               M     MOVWF RES_SUB
Message[305]: Using default destination of 1 (file).
0473   03??               M     DECF RES_SUB
Message[305]: Using default destination of 1 (file).
MPASM 5.87                          MAIN.ASM   6-7-2020  18:12:51         PAGE 63


LOC  OBJECT CODE     LINE SOURCE TEXT
  VALUE

0474   0F??               M     INCFSZ RES_SUB
0475   2???               M     GOTO MC_TESTA12
0476   2???               M     GOTO MC_CARRY_1
0477                      M MC_TESTA12:
Warning[206]: Found call to macro in column 1. (CMP)
                          M CMP CENTENA, D'12', MC_CARRY_2,MC_TESTA13
0477   08??               M     MOVF CENTENA,0
0478   3C0C               M     SUBLW D'12'
0479   00??               M     MOVWF RES_SUB
Message[305]: Using default destination of 1 (file).
047A   03??               M     DECF RES_SUB
Message[305]: Using default destination of 1 (file).
047B   0F??               M     INCFSZ RES_SUB
047C   2???               M     GOTO MC_TESTA13
047D   2???               M     GOTO MC_CARRY_2
047E                      M MC_TESTA13:
Warning[206]: Found call to macro in column 1. (CMP)
                          M CMP CENTENA, D'13', MC_CARRY_3,MC_TESTA14
047E   08??               M     MOVF CENTENA,0
047F   3C0D               M     SUBLW D'13'
0480   00??               M     MOVWF RES_SUB
Message[305]: Using default destination of 1 (file).
0481   03??               M     DECF RES_SUB
Message[305]: Using default destination of 1 (file).
0482   0F??               M     INCFSZ RES_SUB
0483   2???               M     GOTO MC_TESTA14
0484   2???               M     GOTO MC_CARRY_3
0485                      M MC_TESTA14:
Warning[206]: Found call to macro in column 1. (CMP)
                          M CMP CENTENA, D'14', MC_CARRY_4,MC_TESTA15 
0485   08??               M     MOVF CENTENA,0
0486   3C0E               M     SUBLW D'14'
0487   00??               M     MOVWF RES_SUB
Message[305]: Using default destination of 1 (file).
0488   03??               M     DECF RES_SUB
Message[305]: Using default destination of 1 (file).
0489   0F??               M     INCFSZ RES_SUB
048A   2???               M     GOTO MC_TESTA15
048B   2???               M     GOTO MC_CARRY_4
048C                      M MC_TESTA15:
Warning[206]: Found call to macro in column 1. (CMP)
                          M CMP CENTENA, D'15', MC_CARRY_5,MC_TESTA16
048C   08??               M     MOVF CENTENA,0
048D   3C0F               M     SUBLW D'15'
048E   00??               M     MOVWF RES_SUB
Message[305]: Using default destination of 1 (file).
048F   03??               M     DECF RES_SUB
Message[305]: Using default destination of 1 (file).
0490   0F??               M     INCFSZ RES_SUB
0491   2???               M     GOTO MC_TESTA16
0492   2???               M     GOTO MC_CARRY_5
0493                      M MC_TESTA16:
Warning[206]: Found call to macro in column 1. (CMP)
MPASM 5.87                          MAIN.ASM   6-7-2020  18:12:51         PAGE 64


LOC  OBJECT CODE     LINE SOURCE TEXT
  VALUE

                          M CMP CENTENA, D'16', MC_CARRY_6,MC_TESTA17 
0493   08??               M     MOVF CENTENA,0
0494   3C10               M     SUBLW D'16'
0495   00??               M     MOVWF RES_SUB
Message[305]: Using default destination of 1 (file).
0496   03??               M     DECF RES_SUB
Message[305]: Using default destination of 1 (file).
0497   0F??               M     INCFSZ RES_SUB
0498   2???               M     GOTO MC_TESTA17
0499   2???               M     GOTO MC_CARRY_6
049A                      M MC_TESTA17:
Warning[206]: Found call to macro in column 1. (CMP)
                          M CMP CENTENA, D'17', MC_CARRY_7,MC_TESTA18
049A   08??               M     MOVF CENTENA,0
049B   3C11               M     SUBLW D'17'
049C   00??               M     MOVWF RES_SUB
Message[305]: Using default destination of 1 (file).
049D   03??               M     DECF RES_SUB
Message[305]: Using default destination of 1 (file).
049E   0F??               M     INCFSZ RES_SUB
049F   2???               M     GOTO MC_TESTA18
04A0   2???               M     GOTO MC_CARRY_7
04A1                      M MC_TESTA18:
Warning[206]: Found call to macro in column 1. (CMP)
                          M CMP CENTENA, D'18', MC_CARRY_8,MC_TESTA19  
04A1   08??               M     MOVF CENTENA,0
04A2   3C12               M     SUBLW D'18'
04A3   00??               M     MOVWF RES_SUB
Message[305]: Using default destination of 1 (file).
04A4   03??               M     DECF RES_SUB
Message[305]: Using default destination of 1 (file).
04A5   0F??               M     INCFSZ RES_SUB
04A6   2???               M     GOTO MC_TESTA19
04A7   2???               M     GOTO MC_CARRY_8
04A8                      M MC_TESTA19:
Warning[206]: Found call to macro in column 1. (CMP)
                          M CMP CENTENA, D'19', MC_CARRY_9, FIM_TESTE_CENTENA
04A8   08??               M     MOVF CENTENA,0
04A9   3C13               M     SUBLW D'19'
04AA   00??               M     MOVWF RES_SUB
Message[305]: Using default destination of 1 (file).
04AB   03??               M     DECF RES_SUB
Message[305]: Using default destination of 1 (file).
04AC   0F??               M     INCFSZ RES_SUB
04AD   2???               M     GOTO FIM_TESTE_CENTENA
04AE   2???               M     GOTO MC_CARRY_9
                          M     
04AF                      M MC_CARRY_0:
04AF   3000               M     MOVLW D'0'
04B0   00??               M     MOVWF CENTENA
Message[305]: Using default destination of 1 (file).
04B1   0A??               M     INCF MILHAR
04B2   2???               M     GOTO FIM_TESTE_CENTENA
MPASM 5.87                          MAIN.ASM   6-7-2020  18:12:51         PAGE 65


LOC  OBJECT CODE     LINE SOURCE TEXT
  VALUE

04B3                      M MC_CARRY_1:
04B3   3001               M     MOVLW D'1'
04B4   00??               M     MOVWF CENTENA
Message[305]: Using default destination of 1 (file).
04B5   0A??               M     INCF MILHAR
04B6   2???               M     GOTO FIM_TESTE_CENTENA
04B7                      M MC_CARRY_2:
04B7   3002               M     MOVLW D'2'
04B8   00??               M     MOVWF CENTENA
Message[305]: Using default destination of 1 (file).
04B9   0A??               M     INCF MILHAR
04BA   2???               M     GOTO FIM_TESTE_CENTENA
04BB                      M MC_CARRY_3:
04BB   3003               M     MOVLW D'3'
04BC   00??               M     MOVWF CENTENA
Message[305]: Using default destination of 1 (file).
04BD   0A??               M     INCF MILHAR
04BE   2???               M     GOTO FIM_TESTE_CENTENA   
04BF                      M MC_CARRY_4:
04BF   3004               M     MOVLW D'4'
04C0   00??               M     MOVWF CENTENA
Message[305]: Using default destination of 1 (file).
04C1   0A??               M     INCF MILHAR
04C2   2???               M     GOTO FIM_TESTE_CENTENA    
04C3                      M MC_CARRY_5:
04C3   3005               M     MOVLW D'5'
04C4   00??               M     MOVWF CENTENA
Message[305]: Using default destination of 1 (file).
04C5   0A??               M     INCF MILHAR
04C6   2???               M     GOTO FIM_TESTE_CENTENA    
04C7                      M MC_CARRY_6:
04C7   3006               M     MOVLW D'6'
04C8   00??               M     MOVWF CENTENA
Message[305]: Using default destination of 1 (file).
04C9   0A??               M     INCF MILHAR
04CA   2???               M     GOTO FIM_TESTE_CENTENA    
04CB                      M MC_CARRY_7:
04CB   3007               M     MOVLW D'7'
04CC   00??               M     MOVWF CENTENA
Message[305]: Using default destination of 1 (file).
04CD   0A??               M     INCF MILHAR
04CE   2???               M     GOTO FIM_TESTE_CENTENA    
04CF                      M MC_CARRY_8:
04CF   3008               M     MOVLW D'8'
04D0   00??               M     MOVWF CENTENA
Message[305]: Using default destination of 1 (file).
04D1   0A??               M     INCF MILHAR
04D2   2???               M     GOTO FIM_TESTE_CENTENA 
04D3                      M MC_CARRY_9:
04D3   3009               M     MOVLW D'9'
04D4   00??               M     MOVWF CENTENA
Message[305]: Using default destination of 1 (file).
04D5   0A??               M     INCF MILHAR
MPASM 5.87                          MAIN.ASM   6-7-2020  18:12:51         PAGE 66


LOC  OBJECT CODE     LINE SOURCE TEXT
  VALUE

04D6   2???               M     GOTO FIM_TESTE_CENTENA     
                          M     
                          M     
04D7                      M FIM_TESTE_CENTENA:
Message[305]: Using default destination of 1 (file).
04D7   03??               M     DECF AUX_INPUTD
04D8   1903               M     BTFSC STATUS,Z
04D9   2???               M     GOTO LOOP_CENTENA
04DA   0008               M     RETURN
                          M    
                          M    
                          M    
                          M    
                          M    
                          M    
                          M    
                          M    
                          M    
                          M    
                          M    
                          M    
                          M    
                          M    
                          M    
                          M    
                          M    
                          M    
                          M    
                          M    
                      00047        
                      00048 MAIN_PROG CODE   
                      00049  ; let linker place main program
0000                  00050 START
                      00051  
Warning[206]: Found call to macro in column 1. (INICIALIZA_CASAS)
                      00052 INICIALIZA_CASAS UNIDADE,DEZENA,CENTENA,MILHAR ;INICIALIZA AS CASAS DECIMAIS COM 0
0000   3000               M     MOVLW D'0'
0001   00??               M     MOVWF UNIDADE
0002   00??               M     MOVWF DEZENA
0003   00??               M     MOVWF CENTENA
0004   00??               M     MOVWF MILHAR
                      00053  
                      00054  
Warning[203]: Found opcode in column 1. (CALL)
0005   2???           00055 CALL CONFIG_KEYBOARD 
                      00056 ;LENDO PARA A DEZENA  
Warning[203]: Found opcode in column 1. (CALL)
0006   2???           00057 CALL INPUT_LOOP
Warning[203]: Found opcode in column 1. (MOVF)
0007   08??           00058 MOVF INPUT_VAL, 0
Warning[203]: Found opcode in column 1. (MOVWF)
0008   00??           00059 MOVWF INPUT_D1
                      00060  
MPASM 5.87                          MAIN.ASM   6-7-2020  18:12:51         PAGE 67


LOC  OBJECT CODE     LINE SOURCE TEXT
  VALUE

                      00061 ;LENDO PARA A UNIDADE  
Warning[203]: Found opcode in column 1. (CALL)
0009   2???           00062 CALL INPUT_LOOP
Warning[203]: Found opcode in column 1. (MOVF)
000A   08??           00063 MOVF INPUT_VAL, 0
Warning[203]: Found opcode in column 1. (MOVWF)
000B   00??           00064 MOVWF INPUT_U1 
                      00065    
                      00066 
                      00067 
                      00068 ;SEGUNDA PARTE DO CODIGO, LENDO PARA O SEGUNDO NUMERO A SER OPERADO 
                      00069 ;CODIGO REPETIDO
Warning[203]: Found opcode in column 1. (CALL)
000C   2???           00070 CALL INPUT_LOOP
Warning[203]: Found opcode in column 1. (MOVF)
000D   08??           00071 MOVF INPUT_VAL, 0
Warning[203]: Found opcode in column 1. (MOVWF)
000E   00??           00072 MOVWF INPUT_D2
                      00073  
Warning[203]: Found opcode in column 1. (CALL)
000F   2???           00074 CALL INPUT_LOOP
Warning[203]: Found opcode in column 1. (MOVF)
0010   08??           00075 MOVF INPUT_VAL, 0
Warning[203]: Found opcode in column 1. (MOVWF)
0011   00??           00076 MOVWF INPUT_U2 
                      00077 
                      00078 ;CALL OPERATOR_SOMA
                      00079 ;CALL  OPERATOR_SUB
Warning[203]: Found opcode in column 1. (CALL)
0012   2???           00080 CALL OPERATOR_MULTI
                      00081  
Warning[203]: Found opcode in column 1. (CALL)
0013   2???           00082 CALL CONFIG_DISPLAY 
                      00083  
0014                  00084 LOOP
0014   2???           00085     CALL SHOW_NUMBERS
Warning[203]: Found opcode in column 1. (GOTO)
0015   2???           00086 GOTO LOOP
                      00087 
                      00088 
                      00089     
                      00090  
3F3A                  00091     END
MPASM 5.87                          MAIN.ASM   6-7-2020  18:12:51         PAGE 68


SYMBOL TABLE
  LABEL                             VALUE 

ACKDT                             00000005
ACKEN                             00000004
ACKSTAT                           00000006
ADCON0                            0000001F
ADCON1                            0000009F
ADCS0                             00000006
ADCS1                             00000007
ADCS2                             00000006
ADDEN                             00000003
ADFM                              00000007
ADIE                              00000006
ADIF                              00000006
ADON                              00000000
ADRESH                            0000001E
ADRESL                            0000009E
ATIVA_DISPLAY_1                   0000001E
ATIVA_DISPLAY_2                   00000021
ATIVA_DISPLAY_3                   00000024
ATIVA_DISPLAY_4                   00000027
AUX_INPUTD                        00000005
AUX_INPUTU                        00000006
BANK0                             
BANK1                             
BANK2                             
BANK3                             
BCLIE                             00000003
BCLIF                             00000003
BF                                00000000
BRGH                              00000002
C                                 00000000
C1INV                             00000004
C1OUT                             00000006
C2INV                             00000005
C2OUT                             00000007
CALCULATOR_DISPLAY_HEADER         
CALCULATOR_KEYBOARD_HEADER        
CALCULATOR_OPERATION_HEADER       
CASE_0                            000002EA
CASE_D1XD2                        00000464
CASE_D1XU2                        000003ED
CASE_U1XD2                        00000376
CASE_U1XU2                        0000030A
CCP1CON                           00000017
CCP1IE                            00000002
CCP1IF                            00000002
CCP1M0                            00000000
CCP1M1                            00000001
CCP1M2                            00000002
CCP1M3                            00000003
CCP1X                             00000005
CCP1Y                             00000004
CCP2CON                           0000001D
CCP2IE                            00000000
MPASM 5.87                          MAIN.ASM   6-7-2020  18:12:51         PAGE 69


SYMBOL TABLE
  LABEL                             VALUE 

CCP2IF                            00000000
CCP2M0                            00000000
CCP2M1                            00000001
CCP2M2                            00000002
CCP2M3                            00000003
CCP2X                             00000005
CCP2Y                             00000004
CCPR1                             00000015
CCPR1H                            00000016
CCPR1L                            00000015
CCPR2                             0000001B
CCPR2H                            0000001C
CCPR2L                            0000001B
CENTENA                           00000008
CHS0                              00000003
CHS1                              00000004
CHS2                              00000005
CINCO                             0000006D
CIS                               00000003
CKE                               00000006
CKP                               00000004
CM0                               00000000
CM1                               00000001
CM2                               00000002
CMCON                             0000009C
CMIE                              00000006
CMIF                              00000006
CMP                               
CONFIG_DISPLAY                    00000013
CONFIG_KEYBOARD                   000001B5
CREN                              00000004
CSRC                              00000007
CVR0                              00000000
CVR1                              00000001
CVR2                              00000002
CVR3                              00000003
CVRCON                            0000009D
CVREN                             00000007
CVROE                             00000006
CVRR                              00000005
D                                 00000005
DATA_ADDRESS                      00000005
DC                                00000001
DELAY_1MS                         00000005
DELAY_255                         0000000A
DELAY_FT1                         00000000
DELAY_FT2                         00000001
DELAY_FT3                         00000002
DELAY_LOOP                        00000007
DELAY_LP                          0000000E
DEZENA                            00000009
DISPLAY_1                         00000020
DISPLAY_2                         00000004
MPASM 5.87                          MAIN.ASM   6-7-2020  18:12:51         PAGE 70


SYMBOL TABLE
  LABEL                             VALUE 

DISPLAY_3                         00000008
DISPLAY_4                         00000010
DOIS                              0000005B
D_A                               00000005
D_CARRY_0                         000002B6
D_CARRY_1                         000002BA
D_CARRY_2                         000002BE
D_CARRY_3                         000002C2
D_CARRY_4                         000002C6
D_CARRY_5                         000002CA
D_CARRY_6                         000002CE
D_CARRY_7                         000002D2
D_CARRY_8                         000002D6
D_CARRY_9                         000002DA
D_NOT_A                           00000005
D_TESTA11                         00000277
D_TESTA12                         0000027E
D_TESTA13                         00000285
D_TESTA14                         0000028C
D_TESTA15                         00000293
D_TESTA16                         0000029A
D_TESTA17                         000002A1
D_TESTA18                         000002A8
D_TESTA19                         000002AF
EEADR                             0000010D
EEADRH                            0000010F
EECON1                            0000018C
EECON2                            0000018D
EEDATA                            0000010C
EEDATH                            0000010E
EEIE                              00000004
EEIF                              00000004
EEPGD                             00000007
ENABLE_DELAYS                     
ENABLE_DISPLAY                    
ENABLE_KEYBOARD                   
F                                 00000001
FALSE_CENTENA_0                   000000E3
FALSE_CENTENA_1                   000000DC
FALSE_CENTENA_2                   000000D5
FALSE_CENTENA_3                   000000CE
FALSE_CENTENA_4                   000000C7
FALSE_CENTENA_5                   000000C0
FALSE_CENTENA_6                   000000B9
FALSE_CENTENA_7                   000000B2
FALSE_CENTENA_8                   000000AB
FALSE_DEZENA_0                    0000013E
FALSE_DEZENA_1                    00000137
FALSE_DEZENA_2                    00000130
FALSE_DEZENA_3                    00000129
FALSE_DEZENA_4                    00000122
FALSE_DEZENA_5                    0000011B
FALSE_DEZENA_6                    00000114
MPASM 5.87                          MAIN.ASM   6-7-2020  18:12:51         PAGE 71


SYMBOL TABLE
  LABEL                             VALUE 

FALSE_DEZENA_7                    0000010D
FALSE_DEZENA_8                    00000106
FALSE_MILHAR_0                    00000088
FALSE_MILHAR_1                    00000081
FALSE_MILHAR_2                    0000007A
FALSE_MILHAR_3                    00000073
FALSE_MILHAR_4                    0000006C
FALSE_MILHAR_5                    00000065
FALSE_MILHAR_6                    0000005E
FALSE_MILHAR_7                    00000057
FALSE_MILHAR_8                    00000050
FALSE_UNIDADE_0                   00000199
FALSE_UNIDADE_1                   00000192
FALSE_UNIDADE_2                   0000018B
FALSE_UNIDADE_3                   00000184
FALSE_UNIDADE_4                   0000017D
FALSE_UNIDADE_5                   00000176
FALSE_UNIDADE_6                   0000016F
FALSE_UNIDADE_7                   00000168
FALSE_UNIDADE_8                   00000161
FERR                              00000002
FIM_TESTE_CENTENA                 000004D7
FIM_TESTE_DEZENA_1                000003E9
FIM_TESTE_DEZENA_2                00000460
FIM_TESTE_UNIDADE                 00000372
FINAL                             000001B4
FSR                               00000004
GCEN                              00000007
GENERAL_USE_HEADER                
GIE                               00000007
GO                                00000002
GO_DONE                           00000002
GO_NOT_DONE                       00000002
I2C_DATA                          00000005
I2C_READ                          00000002
I2C_START                         00000003
I2C_STOP                          00000004
IBF                               00000007
IBOV                              00000005
INDF                              00000000
INICIALIZA_CASAS                  
INPUT_D1                          0000000C
INPUT_D2                          0000000E
INPUT_EXIT                        00000203
INPUT_KEYBOARD                    
INPUT_LOOP                        000001BF
INPUT_U1                          0000000D
INPUT_U2                          0000000F
INPUT_VAL                         0000000B
INTCON                            0000000B
INTE                              00000004
INTEDG                            00000006
INTF                              00000001
MPASM 5.87                          MAIN.ASM   6-7-2020  18:12:51         PAGE 72


SYMBOL TABLE
  LABEL                             VALUE 

IRP                               00000007
K0                                00000000
K1                                00000001
K2                                00000002
K3                                00000003
K4                                00000004
K5                                00000005
K6                                00000006
K7                                00000007
K8                                00000008
K9                                00000009
LOOP                              00000014
LOOP_CENTENA                      00000466
LOOP_DEZENA_P1                    000003EF
LOOP_DEZENA_P2                    00000378
LOOP_UNIDADE                      0000030C
MC_CARRY_0                        000004AF
MC_CARRY_1                        000004B3
MC_CARRY_2                        000004B7
MC_CARRY_3                        000004BB
MC_CARRY_4                        000004BF
MC_CARRY_5                        000004C3
MC_CARRY_6                        000004C7
MC_CARRY_7                        000004CB
MC_CARRY_8                        000004CF
MC_CARRY_9                        000004D3
MC_TESTA11                        00000470
MC_TESTA12                        00000477
MC_TESTA13                        0000047E
MC_TESTA14                        00000485
MC_TESTA15                        0000048C
MC_TESTA16                        00000493
MC_TESTA17                        0000049A
MC_TESTA18                        000004A1
MC_TESTA19                        000004A8
MD1_CARRY_0                       000003C1
MD1_CARRY_1                       000003C5
MD1_CARRY_2                       000003C9
MD1_CARRY_3                       000003CD
MD1_CARRY_4                       000003D1
MD1_CARRY_5                       000003D5
MD1_CARRY_6                       000003D9
MD1_CARRY_7                       000003DD
MD1_CARRY_8                       000003E1
MD1_CARRY_9                       000003E5
MD1_TESTA11                       00000382
MD1_TESTA12                       00000389
MD1_TESTA13                       00000390
MD1_TESTA14                       00000397
MD1_TESTA15                       0000039E
MD1_TESTA16                       000003A5
MD1_TESTA17                       000003AC
MD1_TESTA18                       000003B3
MPASM 5.87                          MAIN.ASM   6-7-2020  18:12:51         PAGE 73


SYMBOL TABLE
  LABEL                             VALUE 

MD1_TESTA19                       000003BA
MD2_CARRY_0                       00000438
MD2_CARRY_1                       0000043C
MD2_CARRY_2                       00000440
MD2_CARRY_3                       00000444
MD2_CARRY_4                       00000448
MD2_CARRY_5                       0000044C
MD2_CARRY_6                       00000450
MD2_CARRY_7                       00000454
MD2_CARRY_8                       00000458
MD2_CARRY_9                       0000045C
MD2_TESTA11                       000003F9
MD2_TESTA12                       00000400
MD2_TESTA13                       00000407
MD2_TESTA14                       0000040E
MD2_TESTA15                       00000415
MD2_TESTA16                       0000041C
MD2_TESTA17                       00000423
MD2_TESTA18                       0000042A
MD2_TESTA19                       00000431
MILHAR                            00000007
MOV0                              000001E5
MOV1                              000001E8
MOV2                              000001EB
MOV3                              000001EE
MOV4                              000001F1
MOV5                              000001F4
MOV6                              000001F7
MOV7                              000001FA
MOV8                              000001FD
MOV9                              00000200
MTESTA_CENTENA                    00000469
MTESTA_DEZENA                     0000037B
MTESTA_DEZENA_2                   000003F2
MTESTA_UNIDADE                    0000030F
MU_CARRY_0                        0000034E
MU_CARRY_1                        00000352
MU_CARRY_2                        00000356
MU_CARRY_3                        0000035A
MU_CARRY_4                        0000035E
MU_CARRY_5                        00000362
MU_CARRY_6                        00000366
MU_CARRY_7                        0000036A
MU_CARRY_8                        0000036E
MU_TESTA11                        00000316
MU_TESTA12                        0000031D
MU_TESTA13                        00000324
MU_TESTA14                        0000032B
MU_TESTA15                        00000332
MU_TESTA16                        00000339
MU_TESTA17                        00000340
MU_TESTA18                        00000347
NOT_A                             00000005
MPASM 5.87                          MAIN.ASM   6-7-2020  18:12:51         PAGE 74


SYMBOL TABLE
  LABEL                             VALUE 

NOT_ADDRESS                       00000005
NOT_BO                            00000000
NOT_BOR                           00000000
NOT_DONE                          00000002
NOT_PD                            00000003
NOT_POR                           00000001
NOT_RBPU                          00000007
NOT_RC8                           00000006
NOT_T1SYNC                        00000002
NOT_TO                            00000004
NOT_TX8                           00000006
NOT_W                             00000002
NOT_WRITE                         00000002
NOVE                              00000067
OBF                               00000006
OERR                              00000001
OITO                              0000007F
OPERATIONS                        
OPERATOR_MULTI                    000002FA
OPERATOR_SOMA                     00000206
OPERATOR_SUB                      000002DF
OPTION_REG                        00000081
P                                 00000004
PCFG0                             00000000
PCFG1                             00000001
PCFG2                             00000002
PCFG3                             00000003
PCL                               00000002
PCLATH                            0000000A
PCON                              0000008E
PEIE                              00000006
PEN                               00000002
PIE1                              0000008C
PIE2                              0000008D
PIR1                              0000000C
PIR2                              0000000D
POG_VARIAVEIS                     
PORTA                             00000005
PORTB                             00000006
PORTC                             00000007
PORTD                             00000008
PORTE                             00000009
PR2                               00000092
PRINT_0                           0000002A
PRINT_1                           0000002D
PRINT_2                           00000030
PRINT_3                           00000033
PRINT_4                           00000036
PRINT_5                           00000039
PRINT_6                           0000003C
PRINT_7                           0000003F
PRINT_8                           00000042
PRINT_9                           00000045
MPASM 5.87                          MAIN.ASM   6-7-2020  18:12:51         PAGE 75


SYMBOL TABLE
  LABEL                             VALUE 

PS0                               00000000
PS1                               00000001
PS2                               00000002
PSA                               00000003
PSPIE                             00000007
PSPIF                             00000007
PSPMODE                           00000004
QUATRO                            00000066
R                                 00000002
RA0                               00000000
RA1                               00000001
RA2                               00000002
RA3                               00000003
RA4                               00000004
RA5                               00000005
RB0                               00000000
RB1                               00000001
RB2                               00000002
RB3                               00000003
RB4                               00000004
RB5                               00000005
RB6                               00000006
RB7                               00000007
RBIE                              00000003
RBIF                              00000000
RC0                               00000000
RC1                               00000001
RC2                               00000002
RC3                               00000003
RC4                               00000004
RC5                               00000005
RC6                               00000006
RC7                               00000007
RC8_9                             00000006
RC9                               00000006
RCD8                              00000000
RCEN                              00000003
RCIE                              00000005
RCIF                              00000005
RCREG                             0000001A
RCSTA                             00000018
RD                                00000000
RD0                               00000000
RD1                               00000001
RD2                               00000002
RD3                               00000003
RD4                               00000004
RD5                               00000005
RD6                               00000006
RD7                               00000007
RE0                               00000000
RE1                               00000001
RE2                               00000002
MPASM 5.87                          MAIN.ASM   6-7-2020  18:12:51         PAGE 76


SYMBOL TABLE
  LABEL                             VALUE 

READ_WRITE                        00000002
REAJUST                           000002EF
RES_SOM                           00000004
RES_SUB                           00000003
RP0                               00000005
RP1                               00000006
RSEN                              00000001
RX9                               00000006
RX9D                              00000000
R_NOT_W                           00000002
R_W                               00000002
S                                 00000003
SAIDA                             000002DE
SEIS                              0000007D
SEN                               00000000
SETE                              00000027
SHOW_ALL_DISPLAYS                 
SHOW_CENTENA                      000000A3
SHOW_DEZENA                       000000FE
SHOW_NUMBERS                      00000048
SHOW_UNIDADE                      00000159
SMP                               00000007
SPBRG                             00000099
SPEN                              00000007
SREN                              00000005
SSPADD                            00000093
SSPBUF                            00000013
SSPCON                            00000014
SSPCON2                           00000091
SSPEN                             00000005
SSPIE                             00000003
SSPIF                             00000003
SSPM0                             00000000
SSPM1                             00000001
SSPM2                             00000002
SSPM3                             00000003
SSPOV                             00000006
SSPSTAT                           00000094
START                             00000000
STATUS                            00000003
SYNC                              00000004
T0CS                              00000005
T0IE                              00000005
T0IF                              00000002
T0SE                              00000004
T1CKPS0                           00000004
T1CKPS1                           00000005
T1CON                             00000010
T1INSYNC                          00000002
T1OSCEN                           00000003
T1SYNC                            00000002
T2CKPS0                           00000000
T2CKPS1                           00000001
MPASM 5.87                          MAIN.ASM   6-7-2020  18:12:51         PAGE 77


SYMBOL TABLE
  LABEL                             VALUE 

T2CON                             00000012
TESTA_DEZENA                      0000026C
TESTA_UNIDADE                     00000209
TMR0                              00000001
TMR0IE                            00000005
TMR0IF                            00000002
TMR1                              0000000E
TMR1CS                            00000001
TMR1H                             0000000F
TMR1IE                            00000000
TMR1IF                            00000000
TMR1L                             0000000E
TMR1ON                            00000000
TMR2                              00000011
TMR2IE                            00000001
TMR2IF                            00000001
TMR2ON                            00000002
TOUTPS0                           00000003
TOUTPS1                           00000004
TOUTPS2                           00000005
TOUTPS3                           00000006
TRES                              0000004F
TRISA                             00000085
TRISA0                            00000000
TRISA1                            00000001
TRISA2                            00000002
TRISA3                            00000003
TRISA4                            00000004
TRISA5                            00000005
TRISB                             00000086
TRISB0                            00000000
TRISB1                            00000001
TRISB2                            00000002
TRISB3                            00000003
TRISB4                            00000004
TRISB5                            00000005
TRISB6                            00000006
TRISB7                            00000007
TRISC                             00000087
TRISC0                            00000000
TRISC1                            00000001
TRISC2                            00000002
TRISC3                            00000003
TRISC4                            00000004
TRISC5                            00000005
TRISC6                            00000006
TRISC7                            00000007
TRISD                             00000088
TRISD0                            00000000
TRISD1                            00000001
TRISD2                            00000002
TRISD3                            00000003
TRISD4                            00000004
MPASM 5.87                          MAIN.ASM   6-7-2020  18:12:51         PAGE 78


SYMBOL TABLE
  LABEL                             VALUE 

TRISD5                            00000005
TRISD6                            00000006
TRISD7                            00000007
TRISE                             00000089
TRISE0                            00000000
TRISE1                            00000001
TRISE2                            00000002
TRMT                              00000001
TRUE_CENTENA_0                    000000FC
TRUE_CENTENA_1                    000000FA
TRUE_CENTENA_2                    000000F8
TRUE_CENTENA_3                    000000F6
TRUE_CENTENA_4                    000000F4
TRUE_CENTENA_5                    000000F2
TRUE_CENTENA_6                    000000F0
TRUE_CENTENA_7                    000000EE
TRUE_CENTENA_8                    000000EC
TRUE_CENTENA_9                    000000EA
TRUE_DEZENA_0                     00000157
TRUE_DEZENA_1                     00000155
TRUE_DEZENA_2                     00000153
TRUE_DEZENA_3                     00000151
TRUE_DEZENA_4                     0000014F
TRUE_DEZENA_5                     0000014D
TRUE_DEZENA_6                     0000014B
TRUE_DEZENA_7                     00000149
TRUE_DEZENA_8                     00000147
TRUE_DEZENA_9                     00000145
TRUE_MILHAR_0                     000000A1
TRUE_MILHAR_1                     0000009F
TRUE_MILHAR_2                     0000009D
TRUE_MILHAR_3                     0000009B
TRUE_MILHAR_4                     00000099
TRUE_MILHAR_5                     00000097
TRUE_MILHAR_6                     00000095
TRUE_MILHAR_7                     00000093
TRUE_MILHAR_8                     00000091
TRUE_MILHAR_9                     0000008F
TRUE_UNIDADE_0                    000001B2
TRUE_UNIDADE_1                    000001B0
TRUE_UNIDADE_2                    000001AE
TRUE_UNIDADE_3                    000001AC
TRUE_UNIDADE_4                    000001AA
TRUE_UNIDADE_5                    000001A8
TRUE_UNIDADE_6                    000001A6
TRUE_UNIDADE_7                    000001A4
TRUE_UNIDADE_8                    000001A2
TRUE_UNIDADE_9                    000001A0
TX8_9                             00000006
TX9                               00000006
TX9D                              00000000
TXD8                              00000000
TXEN                              00000005
MPASM 5.87                          MAIN.ASM   6-7-2020  18:12:51         PAGE 79


SYMBOL TABLE
  LABEL                             VALUE 

TXIE                              00000004
TXIF                              00000004
TXREG                             00000019
TXSTA                             00000098
UA                                00000001
UM                                00000006
UNIDADE                           0000000A
USE_DISPLAY                       
U_CARRY_0                         00000248
U_CARRY_1                         0000024C
U_CARRY_2                         00000250
U_CARRY_3                         00000254
U_CARRY_4                         00000258
U_CARRY_5                         0000025C
U_CARRY_6                         00000260
U_CARRY_7                         00000264
U_CARRY_8                         00000268
U_TESTA11                         00000210
U_TESTA12                         00000217
U_TESTA13                         0000021E
U_TESTA14                         00000225
U_TESTA15                         0000022C
U_TESTA16                         00000233
U_TESTA17                         0000023A
U_TESTA18                         00000241
W                                 00000000
WCOL                              00000007
WR                                00000001
WREN                              00000002
WRERR                             00000003
Z                                 00000002
ZERO                              0000003F
_BODEN_OFF                        00003FBF
_BODEN_ON                         00003FFF
_BOREN_OFF                        00003FBF
_BOREN_ON                         00003FFF
_CONFIG                           00002007
_CPD_OFF                          00003FFF
_CPD_ON                           00003EFF
_CP_ALL                           00001FFF
_CP_OFF                           00003FFF
_CP_ON                            00001FFF
_DEBUG_OFF                        00003FFF
_DEBUG_ON                         000037FF
_DEVID1                           00002006
_FOSC_EXTRC                       00003FFF
_FOSC_HS                          00003FFE
_FOSC_LP                          00003FFC
_FOSC_XT                          00003FFD
_HS_OSC                           00003FFE
_IDLOC0                           00002000
_IDLOC1                           00002001
_IDLOC2                           00002002
MPASM 5.87                          MAIN.ASM   6-7-2020  18:12:51         PAGE 80


SYMBOL TABLE
  LABEL                             VALUE 

_IDLOC3                           00002003
_LP_OSC                           00003FFC
_LVP_OFF                          00003F7F
_LVP_ON                           00003FFF
_PWRTE_OFF                        00003FFF
_PWRTE_ON                         00003FF7
_RC_OSC                           00003FFF
_WDTE_OFF                         00003FFB
_WDTE_ON                          00003FFF
_WDT_OFF                          00003FFB
_WDT_ON                           00003FFF
_WRT_1FOURTH                      00003BFF
_WRT_256                          00003DFF
_WRT_HALF                         000039FF
_WRT_OFF                          00003FFF
_XT_OSC                           00003FFD
__16F877A                         00000001

Errors   :     0
Warnings :   101 reported,     0 suppressed
Messages :   277 reported,     0 suppressed

